
flight_control.elf:     file format elf32-littlenios2
flight_control.elf
architecture: nios2:r1, flags 0x00000112:
EXEC_P, HAS_SYMS, D_PAGED
start address 0x00000248

Program Header:
    LOAD off    0x00001000 vaddr 0x00000000 paddr 0x00000000 align 2**12
         filesz 0x00000020 memsz 0x00000020 flags r-x
    LOAD off    0x00001020 vaddr 0x00000020 paddr 0x00000020 align 2**12
         filesz 0x0001aca0 memsz 0x0001aca0 flags r-x
    LOAD off    0x0001bcc0 vaddr 0x0001acc0 paddr 0x0001cb3c align 2**12
         filesz 0x00001e7c memsz 0x00001e7c flags rw-
    LOAD off    0x0001e9b8 vaddr 0x0001e9b8 paddr 0x0001e9b8 align 2**12
         filesz 0x00000000 memsz 0x000172d8 flags rw-

Sections:
Idx Name          Size      VMA       LMA       File off  Algn
  0 .entry        00000020  00000000  00000000  00001000  2**5
                  CONTENTS, ALLOC, LOAD, READONLY, CODE
  1 .exceptions   00000228  00000020  00000020  00001020  2**2
                  CONTENTS, ALLOC, LOAD, READONLY, CODE
  2 .text         0001a0f8  00000248  00000248  00001248  2**2
                  CONTENTS, ALLOC, LOAD, READONLY, CODE
  3 .rodata       00000980  0001a340  0001a340  0001b340  2**2
                  CONTENTS, ALLOC, LOAD, READONLY, DATA
  4 .rwdata       00001e7c  0001acc0  0001cb3c  0001bcc0  2**2
                  CONTENTS, ALLOC, LOAD, DATA, SMALL_DATA
  5 .bss          000172d8  0001e9b8  0001e9b8  0001e9b8  2**2
                  ALLOC, SMALL_DATA
  6 .SDRAM        00000000  00035c90  00035c90  0001db3c  2**0
                  CONTENTS
  7 .VGA_Subsystem_Char_Buf_Subsystem_Onchip_SRAM 00000000  09000000  09000000  0001db3c  2**0
                  CONTENTS
  8 .comment      00000023  00000000  00000000  0001db3c  2**0
                  CONTENTS, READONLY
  9 .debug_aranges 00000d00  00000000  00000000  0001db60  2**3
                  CONTENTS, READONLY, DEBUGGING
 10 .debug_info   00023683  00000000  00000000  0001e860  2**0
                  CONTENTS, READONLY, DEBUGGING
 11 .debug_abbrev 00008494  00000000  00000000  00041ee3  2**0
                  CONTENTS, READONLY, DEBUGGING
 12 .debug_line   0000b96d  00000000  00000000  0004a377  2**0
                  CONTENTS, READONLY, DEBUGGING
 13 .debug_frame  00003370  00000000  00000000  00055ce4  2**2
                  CONTENTS, READONLY, DEBUGGING
 14 .debug_str    0000520b  00000000  00000000  00059054  2**0
                  CONTENTS, READONLY, DEBUGGING
 15 .debug_loc    00014bb3  00000000  00000000  0005e25f  2**0
                  CONTENTS, READONLY, DEBUGGING
 16 .debug_alt_sim_info 00000020  00000000  00000000  00072e14  2**2
                  CONTENTS, READONLY, DEBUGGING
 17 .debug_ranges 000013e8  00000000  00000000  00072e38  2**3
                  CONTENTS, READONLY, DEBUGGING
 18 .thread_model 00000006  00000000  00000000  00079535  2**0
                  CONTENTS, READONLY
 19 .cpu          00000005  00000000  00000000  0007953b  2**0
                  CONTENTS, READONLY
 20 .qsys         00000001  00000000  00000000  00079540  2**0
                  CONTENTS, READONLY
 21 .simulation_enabled 00000001  00000000  00000000  00079541  2**0
                  CONTENTS, READONLY
 22 .sysid_hash   00000004  00000000  00000000  00079542  2**0
                  CONTENTS, READONLY
 23 .sysid_base   00000004  00000000  00000000  00079546  2**0
                  CONTENTS, READONLY
 24 .sysid_time   00000004  00000000  00000000  0007954a  2**0
                  CONTENTS, READONLY
 25 .stderr_dev   00000009  00000000  00000000  0007954e  2**0
                  CONTENTS, READONLY
 26 .stdin_dev    00000009  00000000  00000000  00079557  2**0
                  CONTENTS, READONLY
 27 .stdout_dev   00000009  00000000  00000000  00079560  2**0
                  CONTENTS, READONLY
 28 .sopc_system_name 0000000f  00000000  00000000  00079569  2**0
                  CONTENTS, READONLY
 29 .quartus_project_dir 0000003e  00000000  00000000  00079578  2**0
                  CONTENTS, READONLY
 30 .sopcinfo     001d201d  00000000  00000000  000795b6  2**0
                  CONTENTS, READONLY
SYMBOL TABLE:
00000000 l    d  .entry	00000000 .entry
00000020 l    d  .exceptions	00000000 .exceptions
00000248 l    d  .text	00000000 .text
0001a340 l    d  .rodata	00000000 .rodata
0001acc0 l    d  .rwdata	00000000 .rwdata
0001e9b8 l    d  .bss	00000000 .bss
00035c90 l    d  .SDRAM	00000000 .SDRAM
09000000 l    d  .VGA_Subsystem_Char_Buf_Subsystem_Onchip_SRAM	00000000 .VGA_Subsystem_Char_Buf_Subsystem_Onchip_SRAM
00000000 l    d  .comment	00000000 .comment
00000000 l    d  .debug_aranges	00000000 .debug_aranges
00000000 l    d  .debug_info	00000000 .debug_info
00000000 l    d  .debug_abbrev	00000000 .debug_abbrev
00000000 l    d  .debug_line	00000000 .debug_line
00000000 l    d  .debug_frame	00000000 .debug_frame
00000000 l    d  .debug_str	00000000 .debug_str
00000000 l    d  .debug_loc	00000000 .debug_loc
00000000 l    d  .debug_alt_sim_info	00000000 .debug_alt_sim_info
00000000 l    d  .debug_ranges	00000000 .debug_ranges
00000000 l    df *ABS*	00000000 ../flight_control_bsp//obj/HAL/src/crt0.o
00000280 l       .text	00000000 alt_after_alt_main
00000000 l    df *ABS*	00000000 alt_irq_handler.c
00000000 l    df *ABS*	00000000 alt_instruction_exception_entry.c
00000000 l    df *ABS*	00000000 flight_control.c
0000036c l     F .text	00000060 create_tasks
00000000 l    df *ABS*	00000000 rand.c
00000000 l    df *ABS*	00000000 sprintf.c
00000000 l    df *ABS*	00000000 vfprintf.c
0001a766 l     O .rodata	00000010 zeroes.4389
0001a776 l     O .rodata	00000010 blanks.4388
00000000 l    df *ABS*	00000000 dtoa.c
00003f80 l     F .text	00000200 quorem
00000000 l    df *ABS*	00000000 impure.c
0001acc0 l     O .rwdata	00000424 impure_data
00000000 l    df *ABS*	00000000 locale.c
0001b104 l     O .rwdata	00000020 lc_ctype_charset
0001b0e4 l     O .rwdata	00000020 lc_message_charset
0001b124 l     O .rwdata	00000038 lconv
00000000 l    df *ABS*	00000000 mallocr.c
00000000 l    df *ABS*	00000000 memchr.c
00000000 l    df *ABS*	00000000 memcpy.c
00000000 l    df *ABS*	00000000 mprec.c
0001a7a8 l     O .rodata	0000000c p05.2768
00000000 l    df *ABS*	00000000 s_fpclassify.c
00000000 l    df *ABS*	00000000 sbrkr.c
00000000 l    df *ABS*	00000000 strcmp.c
00000000 l    df *ABS*	00000000 strlen.c
00000000 l    df *ABS*	00000000 vfprintf.c
0001a8dc l     O .rodata	00000010 blanks.4332
0001a8cc l     O .rodata	00000010 zeroes.4333
00000000 l    df *ABS*	00000000 mallocr.c
00000000 l    df *ABS*	00000000 mallocr.c
00000000 l    df *ABS*	00000000 int_errno.c
00000000 l    df *ABS*	00000000 memmove.c
00000000 l    df *ABS*	00000000 memset.c
00000000 l    df *ABS*	00000000 mallocr.c
00000000 l    df *ABS*	00000000 libgcc2.c
00000000 l    df *ABS*	00000000 libgcc2.c
00000000 l    df *ABS*	00000000 lib2-divmod.c
00000000 l    df *ABS*	00000000 adddf3.c
00000000 l    df *ABS*	00000000 divdf3.c
00000000 l    df *ABS*	00000000 eqdf2.c
00000000 l    df *ABS*	00000000 gedf2.c
00000000 l    df *ABS*	00000000 ledf2.c
00000000 l    df *ABS*	00000000 muldf3.c
00000000 l    df *ABS*	00000000 subdf3.c
00000000 l    df *ABS*	00000000 fixdfsi.c
00000000 l    df *ABS*	00000000 floatsidf.c
00000000 l    df *ABS*	00000000 floatunsidf.c
00000000 l    df *ABS*	00000000 libgcc2.c
00000000 l    df *ABS*	00000000 libgcc2.c
00000000 l    df *ABS*	00000000 alt_load.c
0000c90c l     F .text	00000068 alt_load_section
00000000 l    df *ABS*	00000000 alt_main.c
00000000 l    df *ABS*	00000000 alt_sbrk.c
0001ca98 l     O .rwdata	00000004 heap_end
00000000 l    df *ABS*	00000000 alt_env_lock.c
0001ca9c l     O .rwdata	00000004 lockid
0001ea14 l     O .bss	00000004 locks
00000000 l    df *ABS*	00000000 alt_malloc_lock.c
0001caa0 l     O .rwdata	00000004 lockid
0001ea1c l     O .bss	00000004 locks
00000000 l    df *ABS*	00000000 os_core.c
0000e464 l     F .text	00000048 OS_InitMisc
0000e4ac l     F .text	0000006c OS_InitRdyList
0000e618 l     F .text	000000e4 OS_InitTCBList
0000e384 l     F .text	000000e0 OS_InitEventList
0000e518 l     F .text	00000080 OS_InitTaskIdle
0000e598 l     F .text	00000080 OS_InitTaskStat
0000e888 l     F .text	00000074 OS_SchedNew
00000000 l    df *ABS*	00000000 os_dbg.c
00000000 l    df *ABS*	00000000 os_flag.c
00010608 l     F .text	000000f4 OS_FlagTaskRdy
000103c8 l     F .text	00000160 OS_FlagBlock
00000000 l    df *ABS*	00000000 os_mbox.c
00000000 l    df *ABS*	00000000 os_mem.c
00000000 l    df *ABS*	00000000 os_q.c
00000000 l    df *ABS*	00000000 os_sem.c
00000000 l    df *ABS*	00000000 os_task.c
00000000 l    df *ABS*	00000000 os_time.c
00000000 l    df *ABS*	00000000 os_tmr.c
000160c8 l     F .text	0000003c OSTmr_Lock
00015b98 l     F .text	0000006c OSTmr_Alloc
00016104 l     F .text	00000034 OSTmr_Unlock
00015fd4 l     F .text	000000f4 OSTmr_Unlink
00015c04 l     F .text	0000009c OSTmr_Free
00015e8c l     F .text	00000148 OSTmr_Link
00015e0c l     F .text	00000080 OSTmr_InitTask
00016138 l     F .text	00000108 OSTmr_Task
00000000 l    df *ABS*	00000000 alt_sys_init.c
00016240 l     F .text	00000034 alt_dev_reg
0001b564 l     O .rwdata	0000106c JTAG_UART
0001c5d0 l     O .rwdata	00000030 AV_Config
0001c600 l     O .rwdata	00000030 Audio_Subsystem_Audio
0001c630 l     O .rwdata	0000002c Char_LCD_16x2
0001c65c l     O .rwdata	0000002c IrDA
0001c688 l     O .rwdata	00000038 PS2_Port
0001c6c0 l     O .rwdata	00000038 PS2_Port_Dual
0001c6f8 l     O .rwdata	0000002c Serial_Port
0001c724 l     O .rwdata	00000034 USB
0001c758 l     O .rwdata	0000005c VGA_Subsystem_Char_Buf_Subsystem_Char_Buf_DMA
0001c7b4 l     O .rwdata	0000005c VGA_Subsystem_VGA_Pixel_DMA
0001c810 l     O .rwdata	0000005c Video_In_Subsystem_Video_In_DMA
0001c86c l     O .rwdata	00000044 VGA_Subsystem_VGA_Pixel_RGB_Resampler
0001c8b0 l     O .rwdata	0000002c SD_Card
00000000 l    df *ABS*	00000000 altera_avalon_jtag_uart_fd.c
00000000 l    df *ABS*	00000000 altera_avalon_jtag_uart_init.c
00016eb8 l     F .text	000002a8 altera_avalon_jtag_uart_irq
00017160 l     F .text	00000104 altera_avalon_jtag_uart_timeout
00000000 l    df *ABS*	00000000 altera_avalon_jtag_uart_ioctl.c
00000000 l    df *ABS*	00000000 altera_avalon_jtag_uart_read.c
00000000 l    df *ABS*	00000000 altera_avalon_jtag_uart_write.c
00000000 l    df *ABS*	00000000 altera_avalon_timer_sc.c
0001793c l     F .text	0000007c alt_avalon_timer_sc_irq
00000000 l    df *ABS*	00000000 altera_up_avalon_character_lcd.c
00000000 l    df *ABS*	00000000 altera_up_avalon_irda.c
00000000 l    df *ABS*	00000000 altera_up_avalon_ps2.c
00000000 l    df *ABS*	00000000 altera_up_avalon_rs232.c
00000000 l    df *ABS*	00000000 alt_alarm_start.c
00000000 l    df *ABS*	00000000 alt_close.c
00018e18 l     F .text	0000003c alt_get_errno
00000000 l    df *ABS*	00000000 alt_dcache_flush_all.c
00000000 l    df *ABS*	00000000 alt_dev.c
00018f44 l     F .text	0000002c alt_dev_null_write
00000000 l    df *ABS*	00000000 alt_dev_llist_insert.c
00018f70 l     F .text	0000003c alt_get_errno
00000000 l    df *ABS*	00000000 alt_do_ctors.c
00000000 l    df *ABS*	00000000 alt_do_dtors.c
00000000 l    df *ABS*	00000000 alt_errno.c
00000000 l    df *ABS*	00000000 alt_find_dev.c
00000000 l    df *ABS*	00000000 alt_icache_flush_all.c
00000000 l    df *ABS*	00000000 alt_io_redirect.c
000191d4 l     F .text	000000c4 alt_open_fd
00000000 l    df *ABS*	00000000 alt_irq_register.c
00000000 l    df *ABS*	00000000 alt_irq_vars.c
00000000 l    df *ABS*	00000000 alt_open.c
00019494 l     F .text	0000003c alt_get_errno
000194d0 l     F .text	000000c4 alt_file_locked
00000000 l    df *ABS*	00000000 alt_release_fd.c
00000000 l    df *ABS*	00000000 alt_tick.c
00000000 l    df *ABS*	00000000 altera_nios2_gen2_irq.c
00000000 l    df *ABS*	00000000 os_cpu_a.o
00000040 l       *ABS*	00000000 OSCtxSw_SWITCH_PC
00000000 l    df *ABS*	00000000 os_cpu_c.c
0001eaa0 l     O .bss	00000002 OSTmrCtr
00000014 l       *ABS*	00000000 OSTCBNext_OFFSET
00000032 l       *ABS*	00000000 OSTCBPrio_OFFSET
00000000 l       *ABS*	00000000 OSTCBStkPtr_OFFSET
00000000 l    df *ABS*	00000000 alt_find_file.c
00000000 l    df *ABS*	00000000 alt_get_fd.c
00000000 l    df *ABS*	00000000 alt_icache_flush.c
00000000 l    df *ABS*	00000000 atexit.c
00000000 l    df *ABS*	00000000 exit.c
00000000 l    df *ABS*	00000000 memcmp.c
00000000 l    df *ABS*	00000000 __atexit.c
00000000 l    df *ABS*	00000000 __call_atexit.c
00000000 l    df *ABS*	00000000 alt_exit.c
0001eaa4 g     O .bss	00000004 alt_instruction_exception_handler
0001e9bc g     O .bss	00000004 inbound_dsp_queue
000071a0 g     F .text	00000074 _mprec_log10
0001caee g     O .rwdata	00000002 OSTaskNameSize
0000728c g     F .text	0000008c __any_on
0001a7b4 g     O .rodata	00000028 __mprec_tinytens
0000c9f8 g     F .text	000000bc alt_main
0001e9c0 g     O .bss	00000001 row_swap
0001ea24 g     O .bss	00000004 OSTmrFreeList
00035b90 g     O .bss	00000100 alt_irq
000184f8 g     F .text	00000060 alt_up_ps2_disable_read_interrupt
000118f0 g     F .text	000000cc OS_MemInit
00001bec g     F .text	00000080 VGA_clear_character
0001cb3c g       *ABS*	00000000 __flash_rwdata_start
00015120 g     F .text	00000060 OSTimeSet
00017aa0 g     F .text	00000040 alt_up_character_lcd_send_cmd
0000b438 g     F .text	00000088 .hidden __eqdf2
000309d0 g     O .bss	00000010 OSTmrWheelTbl
0000d0d4 g     F .text	00000610 OSEventPendMulti
00035c90 g       *ABS*	00000000 __alt_heap_start
00019b40 g     F .text	00000024 OSTaskCreateHook
0001e9c4 g     O .bss	00000004 expired_sem
0001cac6 g     O .rwdata	00000002 OSMboxEn
0000d740 g     F .text	0000004c OSIntEnter
0001e9c8 g     O .bss	00000004 callback_sem
00018310 g     F .text	00000034 read_CE_bit
0001cad6 g     O .rwdata	00000002 OSQEn
00005808 g     F .text	0000007c _setlocale_r
0000cda8 g     F .text	000000cc __malloc_unlock
00019ba8 g     F .text	00000020 OSTaskStatHook
00018698 g     F .text	0000009c alt_up_ps2_read_data_byte_timeout
00018b8c g     F .text	00000090 alt_up_rs232_read_fd
000003cc g     F .text	00000960 flight_task
0001ea28 g     O .bss	00000001 OSLockNesting
0001ea2c g     O .bss	00000004 OSTmrSemSignal
0001cb14 g     O .rwdata	00000002 OSDataSize
0001ea30 g     O .bss	00000001 OSRunning
00008e58 g     F .text	0000015c memmove
00019c14 g     F .text	00000024 OSInitHookBegin
0001cb0c g     O .rwdata	00000002 OSTmrSize
0000631c g     F .text	000000a8 _Balloc
0001e9cc g     O .bss	00000004 in_expire_mailbox
0001ea34 g     O .bss	00000004 OSIdleCtr
0000b4c0 g     F .text	000000dc .hidden __gtdf2
00000fd4 g     F .text	000008f4 input_task
000198f0 g     F .text	00000024 altera_nios2_gen2_irq_init
000199c0 g       .text	00000000 OSStartTsk
00017a2c g     F .text	00000074 get_DDRAM_addr
0000ebc8 g     F .text	000002d4 OS_TCBInit
00000000 g     F .entry	0000001c __reset
0001ea38 g     O .bss	00000002 OSTmrUsed
0001cb12 g     O .rwdata	00000002 OSTmrWheelTblSize
00000020 g       *ABS*	00000000 __flash_exceptions_start
0001cab2 g     O .rwdata	00000002 OSEventSize
0001ea3a g     O .bss	00000001 OSPrioHighRdy
00019b64 g     F .text	00000024 OSTaskDelHook
0001ea04 g     O .bss	00000004 errno
000199a0 g       .text	00000000 OSStartHighRdy
00013bbc g     F .text	000001e4 OSTaskCreateExt
00007724 g     F .text	0000123c ___svfiprintf_internal_r
0000ff10 g     F .text	00000060 OSFlagPendGetFlagsRdy
0001caf2 g     O .rwdata	00000002 OSTaskStatStkSize
0000f08c g     F .text	00000308 OSFlagAccept
00011f28 g     F .text	000000b8 OSQFlush
000119bc g     F .text	00000140 OSQAccept
0001ea0c g     O .bss	00000004 alt_argv
00024a84 g       *ABS*	00000000 _gp
00013a10 g     F .text	000001ac OSTaskCreate
00013520 g     F .text	000004f0 OSTaskChangePrio
0001ea20 g     O .bss	00000004 alt_heapsem
0000ee9c g     F .text	000001f0 OSDebugInit
00013da0 g     F .text	00000344 OSTaskDel
0001ead0 g     O .bss	00000680 display_data
0001c904 g     O .rwdata	00000180 alt_fd_list
000309e0 g     O .bss	00000630 OSFlagTbl
0000e164 g     F .text	000000b8 OS_EventTaskRemove
00019110 g     F .text	00000090 alt_find_dev
000061d4 g     F .text	00000148 memcpy
0001cadc g     O .rwdata	00000002 OSRdyTblSize
00017c48 g     F .text	00000050 alt_up_character_lcd_write_fd
00031010 g     O .bss	00000750 OSTmrTbl
0000c724 g     F .text	000000dc .hidden __floatsidf
00019298 g     F .text	0000007c alt_io_redirect
0000b59c g     F .text	000000f4 .hidden __ltdf2
0001a340 g       *ABS*	00000000 __DTOR_END__
000181e0 g     F .text	00000090 alt_up_irda_write_fd
00018b18 g     F .text	00000074 alt_up_rs232_read_data
00019f10 g     F .text	0000009c alt_exception_cause_generated_bad_addr
0000ce74 g     F .text	00000120 OSEventNameGet
0001f150 g     O .bss	00010000 flight_stack
0001cac0 g     O .rwdata	00000002 OSFlagMax
00007318 g     F .text	00000074 __fpclassifyd
000070fc g     F .text	000000a4 __ratio
0000d78c g     F .text	000000f8 OSIntExit
0001cafa g     O .rwdata	00000002 OSTCBSize
0001ea3b g     O .bss	00000001 OSPrioCur
00017fdc g     F .text	00000040 alt_up_irda_get_used_space_in_read_FIFO
000173bc g     F .text	000002bc altera_avalon_jtag_uart_read
0000a1e8 g     F .text	00000064 .hidden __udivsi3
0001cae0 g     O .rwdata	00000002 OSStkWidth
0001a804 g     O .rodata	000000c8 __mprec_tens
0001cad4 g     O .rwdata	00000002 OSPtrSize
00005884 g     F .text	0000000c __locale_charset
0001cab4 g     O .rwdata	00000002 OSEventTblSize
00017f7c g     F .text	00000060 alt_up_irda_disable_read_interrupt
00019914 g       .text	00000000 OSCtxSw
00019e80 g     F .text	00000090 alt_icache_flush
0001ea00 g     O .bss	00000004 __malloc_top_pad
0001ea3c g     O .bss	00000004 OSTCBList
00015b60 g     F .text	00000038 OSTmrSignal
0001ea90 g     O .bss	00000004 alt_fd_list_lock
0001ca8c g     O .rwdata	00000004 __mb_cur_max
000058b4 g     F .text	0000000c _localeconv_r
0001e9d0 g     O .bss	00000001 inboundCount
00006728 g     F .text	0000003c __i2b
00031760 g     O .bss	00000c30 OSMemTbl
0001ea40 g     O .bss	00000001 OSTickStepState
0001e9d4 g     O .bss	00000004 expired_ack_sem
0000738c g     F .text	00000054 _sbrk_r
0001cad8 g     O .rwdata	00000002 OSQMax
00032390 g     O .bss	00000800 OSTaskStatStk
0001152c g     F .text	000000f0 OSMemNameGet
0001cab8 g     O .rwdata	00000002 OSFlagEn
0001cafe g     O .rwdata	00000002 OSTimeTickHookEn
000106fc g     F .text	000000a4 OS_FlagUnlink
000123d8 g     F .text	00000168 OSQPost
0001cb28 g     O .rwdata	00000004 alt_max_fd
00018a94 g     F .text	00000044 alt_up_rs232_check_parity
0000e750 g     F .text	00000068 OS_MemCopy
0000e7b8 g     F .text	000000d0 OS_Sched
0001143c g     F .text	000000f0 OSMemGet
00011158 g     F .text	00000110 OSMboxQuery
000143cc g     F .text	000001b4 OSTaskNameSet
00018344 g     F .text	00000030 read_num_bytes_available
0001e9fc g     O .bss	00000004 __malloc_max_sbrked_mem
0001ea44 g     O .bss	00000004 OSCtxSwCtr
00019bc8 g     F .text	0000004c OSTimeTickHook
00019314 g     F .text	00000180 alt_irq_register
0001cac2 g     O .rwdata	00000002 OSFlagNameSize
000182ac g     F .text	00000034 read_RI_bit
0000e21c g     F .text	00000100 OS_EventTaskRemoveMulti
0000a2a4 g     F .text	000008ac .hidden __adddf3
0000e014 g     F .text	00000150 OS_EventTaskWaitMulti
00006ea4 g     F .text	0000010c __b2d
0001cada g     O .rwdata	00000002 OSQSize
00009bb8 g     F .text	00000538 .hidden __umoddi3
00012e88 g     F .text	0000020c OSSemPend
0001ca84 g     O .rwdata	00000004 _global_impure_ptr
000090dc g     F .text	00000564 _realloc_r
0001cac4 g     O .rwdata	00000002 OSLowestPrio
00035c90 g       *ABS*	00000000 __bss_end
00019c78 g     F .text	00000024 OSTCBInitHook
0001cb0a g     O .rwdata	00000002 OSTmrCfgTicksPerSec
000197e8 g     F .text	00000108 alt_tick
00010eec g     F .text	00000110 OSMboxPost
00009640 g     F .text	00000578 .hidden __udivdi3
0001caac g     O .rwdata	00000002 OSEventEn
0001a7dc g     O .rodata	00000028 __mprec_bigtens
0000650c g     F .text	00000104 __s2b
0001cb06 g     O .rwdata	00000002 OSTmrCfgNameSize
0000c800 g     F .text	000000a8 .hidden __floatunsidf
00006be4 g     F .text	00000060 __mcmp
000183a8 g     F .text	0000002c read_data_byte
0002f150 g     O .bss	00000100 inbound_dsp_messages
0001ea48 g     O .bss	00000002 OSTmrFree
0001e9d8 g     O .bss	00000001 outboundCount
00010528 g     F .text	000000e0 OS_FlagInit
0001974c g     F .text	0000009c alt_alarm_stop
00001b08 g     F .text	00000068 VGA_pixel
0001533c g     F .text	00000138 OSTmrDel
000182e0 g     F .text	00000030 read_RE_bit
0001cae8 g     O .rwdata	00000002 OSTaskIdleStkSize
0001ea94 g     O .bss	00000004 alt_irq_active
00012ac0 g     F .text	000000b0 OSSemAccept
000019bc g     F .text	00000094 VGA_text
00011730 g     F .text	000000d8 OSMemPut
00011268 g     F .text	000001d4 OSMemCreate
0001ea4c g     O .bss	00000004 OSIdleCtrMax
0001801c g     F .text	0000003c alt_up_irda_get_available_space_in_write_FIFO
000000fc g     F .exceptions	000000d8 alt_irq_handler
0001c8dc g     O .rwdata	00000028 alt_dev_null
0001cafc g     O .rwdata	00000002 OSTicksPerSec
00017ee8 g     F .text	00000038 alt_up_character_lcd_cursor_blink_on
00019914 g       .text	00000000 OSIntCtxSw
00018558 g     F .text	00000074 alt_up_ps2_write_data_byte
00018f24 g     F .text	00000020 alt_dcache_flush_all
00006610 g     F .text	00000068 __hi0bits
0000c6a4 g     F .text	00000080 .hidden __fixdfsi
0001ea50 g     O .bss	00000004 OSTCBFreeList
0001cb3c g       *ABS*	00000000 __ram_rwdata_end
00013094 g     F .text	0000016c OSSemPendAbort
0001cb20 g     O .rwdata	00000008 alt_dev_list
0001cb00 g     O .rwdata	00000002 OSVersionNbr
0001acc0 g       *ABS*	00000000 __ram_rodata_end
00018c1c g     F .text	00000094 alt_up_rs232_write_fd
00000000 g       *ABS*	00000000 __alt_mem_SDRAM
0000b59c g     F .text	000000f4 .hidden __ledf2
000155ac g     F .text	000001b0 OSTmrRemainGet
0001caa8 g     O .rwdata	00000004 OSEndiannessTest
0000695c g     F .text	00000140 __pow5mult
0001e9f4 g     O .bss	00000004 __nlocale_changed
0000a24c g     F .text	00000058 .hidden __umodsi3
0001caba g     O .rwdata	00000002 OSFlagGrpSize
00000d2c g     F .text	000002a8 display_task
0001575c g     F .text	000000e4 OSTmrStateGet
00035c90 g       *ABS*	00000000 end
00018888 g     F .text	00000098 alt_up_ps2_write_fd
00018058 g     F .text	00000044 alt_up_irda_check_parity
0002f250 g     O .bss	00000800 input_stack
00016d7c g     F .text	0000013c altera_avalon_jtag_uart_init
0000ea20 g     F .text	000000dc OS_TaskStat
000001d4 g     F .exceptions	00000074 alt_instruction_exception_entry
0001a340 g       *ABS*	00000000 __CTOR_LIST__
04000000 g       *ABS*	00000000 __alt_stack_pointer
000179b8 g     F .text	00000074 alt_avalon_timer_sc_init
0000c8a8 g     F .text	00000064 .hidden __clzsi2
00017678 g     F .text	000002c4 altera_avalon_jtag_uart_write
00015ca0 g     F .text	0000016c OSTmr_Init
000060f0 g     F .text	000000e4 memchr
0000e6fc g     F .text	00000054 OS_MemClr
00017b54 g     F .text	0000007c alt_up_character_lcd_write
000199e4 g     F .text	0000015c OSTaskStkInit
00001ce4 g     F .text	00000058 _sprintf_r
00008b48 g     F .text	00000310 _free_r
00005890 g     F .text	00000010 __locale_mb_cur_max
0000dd6c g     F .text	00000198 OS_EventTaskRdy
0001a18c g     F .text	00000180 __call_exitprocs
0001ea54 g     O .bss	00000001 OSCPUUsage
0001e9f0 g     O .bss	00000004 __mlocale_changed
0001ca90 g     O .rwdata	00000004 __malloc_sbrk_base
00000248 g     F .text	0000003c _start
0001ea98 g     O .bss	00000004 _alt_tick_rate
00011fe0 g     F .text	0000028c OSQPend
00014c8c g     F .text	00000104 OSTimeDly
00001c84 g     F .text	00000060 rand
00006a9c g     F .text	00000148 __lshift
0001ea9c g     O .bss	00000004 _alt_nticks
000162ac g     F .text	0000096c alt_sys_init
00017d98 g     F .text	0000008c alt_up_character_lcd_shift_display
00007554 g     F .text	000001d0 __ssprint_r
0001a074 g     F .text	00000118 __register_exitproc
0001ea55 g     O .bss	00000001 OSTaskCtr
000187a4 g     F .text	00000058 alt_up_ps2_clear_fifo
00018a58 g     F .text	0000003c alt_up_rs232_get_available_space_in_write_FIFO
00001a50 g     F .text	000000b8 VGA_box
00014d90 g     F .text	00000160 OSTimeDlyHMSM
00006764 g     F .text	000001f8 __multiply
00017e24 g     F .text	0000008c alt_up_character_lcd_erase_pos
00017264 g     F .text	00000068 altera_avalon_jtag_uart_close
0001acc0 g       *ABS*	00000000 __ram_rwdata_start
0001a340 g       *ABS*	00000000 __ram_rodata_start
0001eaa8 g     O .bss	00000028 __malloc_current_mallinfo
0001caae g     O .rwdata	00000002 OSEventMax
00006fb0 g     F .text	0000014c __d2b
00013200 g     F .text	00000110 OSSemPost
00001924 g     F .text	00000098 clear_bg
0000d910 g     F .text	000000dc OSSchedUnlock
00016c18 g     F .text	00000060 altera_avalon_jtag_uart_read_fd
00019da4 g     F .text	000000dc alt_get_fd
0001ea58 g     O .bss	00000004 OSMemFreeList
0000da5c g     F .text	000000b0 OSStatInit
00010304 g     F .text	000000c4 OSFlagQuery
0001cae4 g     O .rwdata	00000002 OSTaskCreateExtEn
0001e9dc g     O .bss	00000004 sim_state
00019ff8 g     F .text	0000007c memcmp
0000dd4c g     F .text	00000020 OS_Dummy
00016cd8 g     F .text	00000050 altera_avalon_jtag_uart_close_fd
00035c90 g       *ABS*	00000000 __alt_stack_base
00016d28 g     F .text	00000054 altera_avalon_jtag_uart_ioctl_fd
00017f20 g     F .text	0000005c alt_up_irda_enable_read_interrupt
00032b90 g     O .bss	000001e0 OSQTbl
0000ab50 g     F .text	000008e8 .hidden __divdf3
00007214 g     F .text	00000078 __copybits
0001b15c g     O .rwdata	00000408 __malloc_av_
0001ea5c g     O .bss	00000004 OSTCBHighRdy
0000b690 g     F .text	00000718 .hidden __muldf3
0001ea60 g     O .bss	00000004 OSQFreeList
000189b8 g     F .text	00000060 alt_up_rs232_disable_read_interrupt
00019c9c g     F .text	00000108 alt_find_file
00018fac g     F .text	000000a4 alt_dev_llist_insert
0000cc88 g     F .text	00000120 __malloc_lock
0000cab4 g     F .text	000000b0 sbrk
00001da8 g     F .text	000021d8 ___svfprintf_internal_r
0000cf94 g     F .text	00000140 OSEventNameSet
00008960 g     F .text	000000c4 _calloc_r
0001ea64 g     O .bss	00000001 OSRdyGrp
00015840 g     F .text	00000140 OSTmrStart
0001e9b8 g       *ABS*	00000000 __bss_start
00008fb4 g     F .text	00000128 memset
00000284 g     F .text	000000e8 main
0001ea10 g     O .bss	00000004 alt_envp
0001e9f8 g     O .bss	00000004 __malloc_max_total_mem
00016c78 g     F .text	00000060 altera_avalon_jtag_uart_write_fd
00001c6c g     F .text	00000018 srand
0001a9fc g     O .rodata	00000100 OSUnMapTbl
0001cade g     O .rwdata	00000002 OSSemEn
00017d0c g     F .text	0000008c alt_up_character_lcd_shift_cursor
0000ff70 g     F .text	00000394 OSFlagPost
04000000 g       *ABS*	00000000 __alt_heap_limit
0000df04 g     F .text	00000110 OS_EventTaskWait
00018734 g     F .text	00000070 alt_up_ps2_read_data_byte
0000eafc g     F .text	000000cc OS_TaskStatStkChk
000140e4 g     F .text	00000150 OSTaskDelReq
00004180 g     F .text	00001688 _dtoa_r
000058e4 g     F .text	0000080c _malloc_r
0001e9e0 g     O .bss	00000004 runway_sem
0001cb2c g     O .rwdata	00000004 alt_errno
0000d9ec g     F .text	00000070 OSStart
0000cc28 g     F .text	00000060 __env_unlock
00014580 g     F .text	000001d4 OSTaskResume
00011808 g     F .text	000000e8 OSMemQuery
0001caf0 g     O .rwdata	00000002 OSTaskStatEn
0001809c g     F .text	00000040 alt_up_irda_write_data
0001caca g     O .rwdata	00000002 OSMemMax
00012540 g     F .text	00000170 OSQPostFront
00018920 g     F .text	0000003c alt_up_ps2_open_dev
0000a0f0 g     F .text	00000084 .hidden __divsi3
0001ea65 g     O .bss	00000006 OSRdyTbl
0001caa4 g     O .rwdata	00000002 OSDebugEn
00017b18 g     F .text	0000003c alt_up_character_lcd_open_dev
00008a24 g     F .text	00000124 _malloc_trim_r
0001849c g     F .text	0000005c alt_up_ps2_enable_read_interrupt
0001a340 g       *ABS*	00000000 __CTOR_END__
0001cabc g     O .rwdata	00000002 OSFlagNodeSize
0001cb04 g     O .rwdata	00000002 OSTmrCfgMax
00017ae0 g     F .text	00000038 alt_up_character_lcd_init
000073e0 g     F .text	000000dc strcmp
00011afc g     F .text	000001ac OSQCreate
00014234 g     F .text	00000198 OSTaskNameGet
0001a340 g       *ABS*	00000000 __flash_rodata_start
000126b0 g     F .text	0000020c OSQPostOpt
0000db0c g     F .text	00000220 OSTimeTick
0001caec g     O .rwdata	00000002 OSTaskMax
0001a340 g       *ABS*	00000000 __DTOR_LIST__
00012b70 g     F .text	000000d8 OSSemCreate
0001cb10 g     O .rwdata	00000002 OSTmrWheelSize
00018cb0 g     F .text	0000003c alt_up_rs232_open_dev
0000b438 g     F .text	00000088 .hidden __nedf2
0001cae6 g     O .rwdata	00000002 OSTaskDelEn
00013310 g     F .text	00000110 OSSemQuery
00011ca8 g     F .text	00000280 OSQDel
0001226c g     F .text	0000016c OSQPendAbort
00016274 g     F .text	00000038 alt_irq_init
000196e8 g     F .text	00000064 alt_release_fd
0002fa50 g     O .bss	00000800 display_stack
00018374 g     F .text	00000034 read_data_valid
00001d3c g     F .text	0000006c sprintf
00017eb0 g     F .text	00000038 alt_up_character_lcd_cursor_off
0001a8ec g     O .rodata	00000100 .hidden __clz_tab
0001e9ec g     O .bss	00000004 _PathLocale
00015980 g     F .text	000001e0 OSTmrStop
00018634 g     F .text	00000064 alt_up_ps2_write_data_byte_with_ack
00019fac g     F .text	00000014 atexit
0000d884 g     F .text	0000008c OSSchedLock
000058c0 g     F .text	00000018 setlocale
00032d70 g     O .bss	00000800 OSTmrTaskStk
0000f394 g     F .text	00000108 OSFlagCreate
000018c8 g     F .text	0000005c u_callback
0001ca88 g     O .rwdata	00000004 _impure_ptr
0001ea08 g     O .bss	00000004 alt_argc
000190b0 g     F .text	00000060 _do_dtors
000058ac g     F .text	00000008 __locale_cjk_lang
0001cab6 g     O .rwdata	00000002 OSEventMultiEn
00015180 g     F .text	000001bc OSTmrCreate
09000000 g       *ABS*	00000000 __alt_mem_VGA_Subsystem_Char_Buf_Subsystem_Onchip_SRAM
0000f49c g     F .text	00000248 OSFlagDel
0001ea6c g     O .bss	00000004 OSEventFreeList
00000020 g       .exceptions	00000000 alt_irq_entry
00010d80 g     F .text	0000016c OSMboxPendAbort
0001e9e4 g     O .bss	00000004 outbound_dsp_queue
0001e9e8 g     O .bss	00000004 out_expire_mailbox
00006e40 g     F .text	00000064 __ulp
0000f958 g     F .text	000005b8 OSFlagPend
0001cb02 g     O .rwdata	00000002 OSTmrEn
0001cb18 g     O .rwdata	00000008 alt_fs_list
00015474 g     F .text	00000138 OSTmrNameGet
0000e8fc g     F .text	00000074 OS_StrCopy
0001895c g     F .text	0000005c alt_up_rs232_enable_read_interrupt
00018ad8 g     F .text	00000040 alt_up_rs232_write_data
0001cacc g     O .rwdata	00000002 OSMemNameSize
00019c38 g     F .text	00000020 OSInitHookEnd
00000020 g       *ABS*	00000000 __ram_exceptions_start
0001caf8 g     O .rwdata	00000002 OSTCBPrioTblMax
000058d8 g     F .text	0000000c localeconv
0001caf4 g     O .rwdata	00000002 OSTaskStatStkChkEn
00010838 g     F .text	000000d4 OSMboxCreate
0001cac8 g     O .rwdata	00000002 OSMemEn
0001cad2 g     O .rwdata	00000002 OSMutexEn
0001cb3c g       *ABS*	00000000 _edata
00035c90 g       *ABS*	00000000 _end
0001ea70 g     O .bss	00000001 OSIntNesting
00000248 g       *ABS*	00000000 __ram_exceptions_end
000172cc g     F .text	000000f0 altera_avalon_jtag_uart_ioctl
00014ef0 g     F .text	000001d4 OSTimeDlyResume
0000f80c g     F .text	0000014c OSFlagNameSet
00010b4c g     F .text	00000234 OSMboxPend
0001e9b8 g     O .bss	00000001 totalFlights
00030250 g     O .bss	00000100 outbound_dsp_messages
00014754 g     F .text	000001c0 OSTaskStkChk
0001cace g     O .rwdata	00000002 OSMemSize
0001ca94 g     O .rwdata	00000004 __malloc_trim_threshold
000058a0 g     F .text	0000000c __locale_msgcharset
0001ea74 g     O .bss	00000004 OSTCBCur
00019fc0 g     F .text	00000038 exit
000180dc g     F .text	00000074 alt_up_irda_read_data
0001cad0 g     O .rwdata	00000002 OSMemTblSize
000183d4 g     F .text	000000c8 alt_up_ps2_init
00006c44 g     F .text	000001fc __mdiff
0000a174 g     F .text	00000074 .hidden __modsi3
000107a0 g     F .text	00000098 OSMboxAccept
04000000 g       *ABS*	00000000 __alt_data_end
00000020 g     F .exceptions	00000000 alt_exception
0000d6e4 g     F .text	0000005c OSInit
0001ea78 g     O .bss	00000004 OSTmrTime
00014af8 g     F .text	00000124 OSTaskQuery
00017bd0 g     F .text	00000078 alt_up_character_lcd_string
00012a18 g     F .text	000000a8 OS_QInit
0000e970 g     F .text	00000054 OS_StrLen
00018270 g     F .text	0000003c alt_up_irda_open_dev
0001161c g     F .text	00000114 OSMemNameSet
0001caea g     O .rwdata	00000002 OSTaskProfileEn
0001ea7c g     O .bss	00000004 OSTime
0001ea80 g     O .bss	00000004 OSTmrSem
00033570 g     O .bss	00000800 OSTaskIdleStk
0001a30c g     F .text	00000034 _exit
00010ffc g     F .text	0000015c OSMboxPostOpt
00018cec g     F .text	0000012c alt_alarm_start
0000f6e4 g     F .text	00000128 OSFlagNameGet
000150c4 g     F .text	0000005c OSTimeGet
000185cc g     F .text	00000068 alt_up_ps2_wait_for_ack
000074bc g     F .text	00000098 strlen
00019b88 g     F .text	00000020 OSTaskSwHook
00019594 g     F .text	00000154 open
00033d70 g     O .bss	00000c30 OSEventTbl
00001b70 g     F .text	0000007c VGA_clear
0000b4c0 g     F .text	000000dc .hidden __gedf2
000349a0 g     O .bss	0000114c OSTCBTbl
00013420 g     F .text	00000100 OSSemSet
000191a0 g     F .text	00000034 alt_icache_flush_all
00017c98 g     F .text	00000074 alt_up_character_lcd_set_cursor_pos
0001cb30 g     O .rwdata	00000004 alt_priority_mask
00030350 g     O .bss	00000680 flight_data
00012c48 g     F .text	00000240 OSSemDel
0001ea84 g     O .bss	00000004 OSFlagFreeList
0001cab0 g     O .rwdata	00000002 OSEventNameSize
0001090c g     F .text	00000240 OSMboxDel
0001ea88 g     O .bss	00000001 OSStatRdy
00035aec g     O .bss	000000a4 OSTCBPrioTbl
0000cb64 g     F .text	000000c4 __env_lock
000187fc g     F .text	0000008c alt_up_ps2_read_fd
0001caf6 g     O .rwdata	00000002 OSTaskSwHookEn
0000bda8 g     F .text	000008fc .hidden __subdf3
00018150 g     F .text	00000090 alt_up_irda_read_fd
00006678 g     F .text	000000b0 __lo0bits
0001cb34 g     O .rwdata	00000008 alt_alarm_list
0001cabe g     O .rwdata	00000002 OSFlagWidth
00019050 g     F .text	00000060 _do_ctors
00018a18 g     F .text	00000040 alt_up_rs232_get_used_space_in_read_FIFO
00018e54 g     F .text	000000d0 close
0001ea18 g     O .bss	00000004 alt_envsem
0001ea8c g     O .bss	00000004 OSIdleCtrRun
0000dd2c g     F .text	00000020 OSVersion
0001cb08 g     O .rwdata	00000002 OSTmrCfgWheelSize
0000c974 g     F .text	00000084 alt_load
00014c1c g     F .text	00000070 OS_TaskStkClr
0001cae2 g     O .rwdata	00000002 OSTaskCreateEn
0000e31c g     F .text	00000068 OS_EventWaitListInit
00019c58 g     F .text	00000020 OSTaskIdleHook
000063ec g     F .text	00000120 __multadd
00014914 g     F .text	000001e4 OSTaskSuspend
000063c4 g     F .text	00000028 _Bfree
0000e9c4 g     F .text	0000005c OS_TaskIdle
0001cb0e g     O .rwdata	00000002 OSTmrTblSize
000128bc g     F .text	0000015c OSQQuery



Disassembly of section .entry:

00000000 <__reset>:
#if NIOS2_ICACHE_SIZE > 0 && defined(ALT_ALLOW_CODE_AT_RESET) && (!defined(ALT_SIM_OPTIMIZE) || defined(NIOS2_ECC_PRESENT))
    /* Assume the instruction cache size is always a power of two. */
#if NIOS2_ICACHE_SIZE > 0x8000
    movhi r2, %hi(NIOS2_ICACHE_SIZE)
#else
    movui r2, NIOS2_ICACHE_SIZE
   0:	00840014 	movui	r2,4096
#endif

0:
    initi r2
   4:	1001483a 	initi	r2
    addi r2, r2, -NIOS2_ICACHE_LINE_SIZE
   8:	10bff804 	addi	r2,r2,-32
    bgt r2, zero, 0b
   c:	00bffd16 	blt	zero,r2,4 <__reset+0x4>
 * Jump to the _start entry point in the .text section if reset code
 * is allowed or if optimizing for RTL simulation.
 */
#if defined(ALT_ALLOW_CODE_AT_RESET) || defined(ALT_SIM_OPTIMIZE)
    /* Jump to the _start entry point in the .text section. */
    movhi r1, %hi(_start)
  10:	00400034 	movhi	at,0
    ori r1, r1, %lo(_start)
  14:	08409214 	ori	at,at,584
    jmp r1
  18:	0800683a 	jmp	at
  1c:	00000000 	call	0 <__reset>

Disassembly of section .exceptions:

00000020 <alt_exception>:

#else /* ALT_EXCEPTION_STACK disabled */
        /* 
         * Reserve space on normal stack for registers about to be pushed.
         */
        addi  sp, sp, -76
  20:	deffed04 	addi	sp,sp,-76
         * documentation for details).
         *
         * Leave a gap in the stack frame at 4(sp) for the muldiv handler to
         * store zero into.
         */
        stw   ra,  0(sp)
  24:	dfc00015 	stw	ra,0(sp)
        stw   r1,   8(sp)
  28:	d8400215 	stw	at,8(sp)
        stw   r2,  12(sp)
  2c:	d8800315 	stw	r2,12(sp)
        stw   r3,  16(sp)
  30:	d8c00415 	stw	r3,16(sp)
        stw   r4,  20(sp)
  34:	d9000515 	stw	r4,20(sp)
        stw   r5,  24(sp)
  38:	d9400615 	stw	r5,24(sp)
        stw   r6,  28(sp)
  3c:	d9800715 	stw	r6,28(sp)
        stw   r7,  32(sp)
  40:	d9c00815 	stw	r7,32(sp)
        rdctl r5, estatus   /* Read early to avoid usage stall */
  44:	000b307a 	rdctl	r5,estatus
        stw   r8,  36(sp)
  48:	da000915 	stw	r8,36(sp)
        stw   r9,  40(sp)
  4c:	da400a15 	stw	r9,40(sp)
        stw   r10, 44(sp)
  50:	da800b15 	stw	r10,44(sp)
        stw   r11, 48(sp)
  54:	dac00c15 	stw	r11,48(sp)
        stw   r12, 52(sp)
  58:	db000d15 	stw	r12,52(sp)
        stw   r13, 56(sp)
  5c:	db400e15 	stw	r13,56(sp)
        stw   r14, 60(sp)
  60:	db800f15 	stw	r14,60(sp)
        stw   r15, 64(sp)
  64:	dbc01015 	stw	r15,64(sp)
        /*
         * ea-4 contains the address of the instruction being executed
         * when the exception occured. For interrupt exceptions, we will
         * will be re-issue the isntruction. Store it in 72(sp)
         */
        stw   r5,  68(sp)  /* estatus */
  68:	d9401115 	stw	r5,68(sp)
        addi  r15, ea, -4  /* instruction that caused exception */
  6c:	ebffff04 	addi	r15,ea,-4
        stw   r15,  72(sp)
  70:	dbc01215 	stw	r15,72(sp)
#else
        /*
         * Test to see if the exception was a software exception or caused 
         * by an external interrupt, and vector accordingly.
         */
        rdctl r4, ipending
  74:	0009313a 	rdctl	r4,ipending
        andi  r2, r5, 1
  78:	2880004c 	andi	r2,r5,1
        beq   r2, zero, .Lnot_irq
  7c:	10000326 	beq	r2,zero,8c <OSCtxSw_SWITCH_PC+0x4c>
        beq   r4, zero, .Lnot_irq
  80:	20000226 	beq	r4,zero,8c <OSCtxSw_SWITCH_PC+0x4c>
        /*
         * Now that all necessary registers have been preserved, call 
         * alt_irq_handler() to process the interrupts.
         */

        call alt_irq_handler
  84:	00000fc0 	call	fc <alt_irq_handler>

        .section .exceptions.irqreturn, "xa"

        br    .Lexception_exit
  88:	00000706 	br	a8 <OSCtxSw_SWITCH_PC+0x68>
         * upon completion, so we write ea (address of instruction *after*
         * the one where the exception occured) into 72(sp). The actual
         * instruction that caused the exception is written in r2, which these
         * handlers will utilize.
         */
        stw ea, 72(sp) /* EA is PC+4 so will skip over instruction causing exception */
  8c:	df401215 	stw	ea,72(sp)
.Lunknown_16bit:
        addi.n r4, r4, 2 /* Need PC+2 to skip over instruction causing exception */
        stw r4, 72(sp)

#else /* CDX is not Enabled and all instructions are 32bits */
        ldw r2, -4(ea) /* Instruction value that caused exception */
  90:	e8bfff17 	ldw	r2,-4(ea)
         * debugger is present) or go into an infinite loop since the
         * handling behavior is undefined; in that case we will not return here.
         */

        /* Load exception-causing address as first argument (r4) */
        addi   r4, ea, -4
  94:	e93fff04 	addi	r4,ea,-4

        /* Call the instruction-exception entry */
        call   alt_instruction_exception_entry
  98:	00001d40 	call	1d4 <alt_instruction_exception_entry>
         * instruction
         *
         * Return code was 0: Skip. The instruction after the exception is
         * already stored in 72(sp).
         */
        bne   r2, r0, .Lexception_exit
  9c:	1000021e 	bne	r2,zero,a8 <OSCtxSw_SWITCH_PC+0x68>

        /*
         * Otherwise, modify 72(sp) to re-issue the instruction that caused the
         * exception.
         */
        addi  r15, ea, -4  /* instruction that caused exception */
  a0:	ebffff04 	addi	r15,ea,-4
        stw   r15,  72(sp)
  a4:	dbc01215 	stw	r15,72(sp)
        /* 
         * Restore the saved registers, so that all general purpose registers 
         * have been restored to their state at the time the interrupt occured.
         */

        ldw   r5,  68(sp)
  a8:	d9401117 	ldw	r5,68(sp)
        ldw   ea,  72(sp)  /* This becomes the PC once eret is executed */
  ac:	df401217 	ldw	ea,72(sp)
        ldw   ra,   0(sp)
  b0:	dfc00017 	ldw	ra,0(sp)

        wrctl estatus, r5
  b4:	2801707a 	wrctl	estatus,r5

        ldw   r1,   8(sp)
  b8:	d8400217 	ldw	at,8(sp)
        ldw   r2,  12(sp)
  bc:	d8800317 	ldw	r2,12(sp)
        ldw   r3,  16(sp)
  c0:	d8c00417 	ldw	r3,16(sp)
        ldw   r4,  20(sp)
  c4:	d9000517 	ldw	r4,20(sp)
        ldw   r5,  24(sp)
  c8:	d9400617 	ldw	r5,24(sp)
        ldw   r6,  28(sp)
  cc:	d9800717 	ldw	r6,28(sp)
        ldw   r7,  32(sp)
  d0:	d9c00817 	ldw	r7,32(sp)

#if defined(ALT_EXCEPTION_STACK) && defined(ALT_STACK_CHECK)
        ldw   et, %gprel(alt_exception_old_stack_limit)(gp)
#endif

        ldw   r8,  36(sp)
  d4:	da000917 	ldw	r8,36(sp)
        ldw   r9,  40(sp)
  d8:	da400a17 	ldw	r9,40(sp)
        ldw   r10, 44(sp)
  dc:	da800b17 	ldw	r10,44(sp)
        ldw   r11, 48(sp)
  e0:	dac00c17 	ldw	r11,48(sp)
        ldw   r12, 52(sp)
  e4:	db000d17 	ldw	r12,52(sp)
        ldw   r13, 56(sp)
  e8:	db400e17 	ldw	r13,56(sp)
        ldw   r14, 60(sp)
  ec:	db800f17 	ldw	r14,60(sp)
        ldw   r15, 64(sp)
  f0:	dbc01017 	ldw	r15,64(sp)
        stw   et, %gprel(alt_stack_limit_value)(gp)
        stw   zero, %gprel(alt_exception_old_stack_limit)(gp)
#endif /* ALT_STACK_CHECK */
        ldw   sp,  76(sp)
#else /* ALT_EXCEPTION_STACK disabled */
        addi  sp, sp, 76
  f4:	dec01304 	addi	sp,sp,76

        /*
         * Return to the interrupted instruction.
         */

        eret
  f8:	ef80083a 	eret

000000fc <alt_irq_handler>:
 * instruction is present if the macro ALT_CI_INTERRUPT_VECTOR defined.
 */

void alt_irq_handler (void) __attribute__ ((section (".exceptions")));
void alt_irq_handler (void)
{
  fc:	defff904 	addi	sp,sp,-28
 100:	dfc00615 	stw	ra,24(sp)
 104:	df000515 	stw	fp,20(sp)
 108:	df000504 	addi	fp,sp,20
  
  /*
   * Notify the operating system that we are at interrupt level.
   */ 
  
  ALT_OS_INT_ENTER();
 10c:	000d7400 	call	d740 <OSIntEnter>
#ifndef NIOS2_EIC_PRESENT
static ALT_INLINE alt_u32 ALT_ALWAYS_INLINE alt_irq_pending (void)
{
  alt_u32 active;

  NIOS2_READ_IPENDING (active);
 110:	0005313a 	rdctl	r2,ipending
 114:	e0bffe15 	stw	r2,-8(fp)

  return active;
 118:	e0bffe17 	ldw	r2,-8(fp)
   * Consider the case where the high priority interupt is asserted during
   * the interrupt entry sequence for a lower priority interrupt to see why
   * this is the case.
   */

  active = alt_irq_pending ();
 11c:	e0bffb15 	stw	r2,-20(fp)

  do
  {
    i = 0;
 120:	e03ffd15 	stw	zero,-12(fp)
    mask = 1;
 124:	00800044 	movi	r2,1
 128:	e0bffc15 	stw	r2,-16(fp)
     * called to clear the interrupt condition.
     */

    do
    {
      if (active & mask)
 12c:	e0fffb17 	ldw	r3,-20(fp)
 130:	e0bffc17 	ldw	r2,-16(fp)
 134:	1884703a 	and	r2,r3,r2
 138:	10001526 	beq	r2,zero,190 <alt_irq_handler+0x94>
      { 
#ifdef ALT_ENHANCED_INTERRUPT_API_PRESENT
        alt_irq[i].handler(alt_irq[i].context); 
#else
        alt_irq[i].handler(alt_irq[i].context, i); 
 13c:	008000f4 	movhi	r2,3
 140:	1096e404 	addi	r2,r2,23440
 144:	e0fffd17 	ldw	r3,-12(fp)
 148:	180690fa 	slli	r3,r3,3
 14c:	10c5883a 	add	r2,r2,r3
 150:	10c00017 	ldw	r3,0(r2)
 154:	008000f4 	movhi	r2,3
 158:	1096e404 	addi	r2,r2,23440
 15c:	e13ffd17 	ldw	r4,-12(fp)
 160:	200890fa 	slli	r4,r4,3
 164:	1105883a 	add	r2,r2,r4
 168:	10800104 	addi	r2,r2,4
 16c:	10800017 	ldw	r2,0(r2)
 170:	e17ffd17 	ldw	r5,-12(fp)
 174:	1009883a 	mov	r4,r2
 178:	183ee83a 	callr	r3
#endif
        break;
 17c:	0001883a 	nop
#ifndef NIOS2_EIC_PRESENT
static ALT_INLINE alt_u32 ALT_ALWAYS_INLINE alt_irq_pending (void)
{
  alt_u32 active;

  NIOS2_READ_IPENDING (active);
 180:	0005313a 	rdctl	r2,ipending
 184:	e0bfff15 	stw	r2,-4(fp)

  return active;
 188:	e0bfff17 	ldw	r2,-4(fp)
 18c:	00000706 	br	1ac <alt_irq_handler+0xb0>
      }
      mask <<= 1;
 190:	e0bffc17 	ldw	r2,-16(fp)
 194:	1085883a 	add	r2,r2,r2
 198:	e0bffc15 	stw	r2,-16(fp)
      i++;
 19c:	e0bffd17 	ldw	r2,-12(fp)
 1a0:	10800044 	addi	r2,r2,1
 1a4:	e0bffd15 	stw	r2,-12(fp)

    } while (1);
 1a8:	003fe006 	br	12c <alt_irq_handler+0x30>

    active = alt_irq_pending ();
 1ac:	e0bffb15 	stw	r2,-20(fp)
    
  } while (active);
 1b0:	e0bffb17 	ldw	r2,-20(fp)
 1b4:	103fda1e 	bne	r2,zero,120 <alt_irq_handler+0x24>

  /*
   * Notify the operating system that interrupt processing is complete.
   */ 

  ALT_OS_INT_EXIT();
 1b8:	000d78c0 	call	d78c <OSIntExit>
}
 1bc:	0001883a 	nop
 1c0:	e037883a 	mov	sp,fp
 1c4:	dfc00117 	ldw	ra,4(sp)
 1c8:	df000017 	ldw	fp,0(sp)
 1cc:	dec00204 	addi	sp,sp,8
 1d0:	f800283a 	ret

000001d4 <alt_instruction_exception_entry>:
 * that handler if it has been registered. Absent a handler, it will
 * break break or hang as discussed below.
 */
int 
alt_instruction_exception_entry (alt_u32 exception_pc)
{
 1d4:	defffb04 	addi	sp,sp,-20
 1d8:	dfc00415 	stw	ra,16(sp)
 1dc:	df000315 	stw	fp,12(sp)
 1e0:	df000304 	addi	fp,sp,12
 1e4:	e13fff15 	stw	r4,-4(fp)
 * NIOS2_EXCEPTION_CAUSE_NOT_PRESENT. Your handling routine should
 * check the validity of the cause argument before proceeding.
 */
#ifdef NIOS2_HAS_EXTRA_EXCEPTION_INFO
  /* Get exception cause & "badaddr" */
  NIOS2_READ_EXCEPTION(cause);
 1e8:	000531fa 	rdctl	r2,exception
 1ec:	e0bffd15 	stw	r2,-12(fp)
  cause = ( (cause & NIOS2_EXCEPTION_REG_CAUSE_MASK) >>
 1f0:	e0bffd17 	ldw	r2,-12(fp)
 1f4:	10801f0c 	andi	r2,r2,124
 1f8:	1004d0ba 	srli	r2,r2,2
 1fc:	e0bffd15 	stw	r2,-12(fp)
              NIOS2_EXCEPTION_REG_CAUSE_OFST );

  NIOS2_READ_BADADDR(badaddr);
 200:	0005333a 	rdctl	r2,badaddr
 204:	e0bffe15 	stw	r2,-8(fp)
#else
  cause = NIOS2_EXCEPTION_CAUSE_NOT_PRESENT;
  badaddr = 0;
#endif /* NIOS2_HAS_EXTRA_EXCEPTION_INFO */

  if(alt_instruction_exception_handler) {
 208:	d0a80817 	ldw	r2,-24544(gp)
 20c:	10000726 	beq	r2,zero,22c <alt_instruction_exception_entry+0x58>
     * Call handler. Its return value indicates whether the exception-causing
     * instruction should be re-issued. The code that called us,
     * alt_eceptions_entry.S, will look at this value and adjust the ea
     * register as necessary
     */
    return alt_instruction_exception_handler(cause, exception_pc, badaddr);
 210:	d0a80817 	ldw	r2,-24544(gp)
 214:	e0fffd17 	ldw	r3,-12(fp)
 218:	e1bffe17 	ldw	r6,-8(fp)
 21c:	e17fff17 	ldw	r5,-4(fp)
 220:	1809883a 	mov	r4,r3
 224:	103ee83a 	callr	r2
 228:	00000206 	br	234 <alt_instruction_exception_entry+0x60>
   *    (a peripheral which negates its interrupt output before its
   *    interrupt handler has been executed will cause spurious interrupts)
   */
  else {
#ifdef NIOS2_HAS_DEBUG_STUB
    NIOS2_BREAK();
 22c:	003da03a 	break	0
      ;
#endif /* NIOS2_HAS_DEBUG_STUB */
  }

  /* We should not get here. Remove compiler warning. */
  return NIOS2_EXCEPTION_RETURN_REISSUE_INST;
 230:	0005883a 	mov	r2,zero
}
 234:	e037883a 	mov	sp,fp
 238:	dfc00117 	ldw	ra,4(sp)
 23c:	df000017 	ldw	fp,0(sp)
 240:	dec00204 	addi	sp,sp,8
 244:	f800283a 	ret

Disassembly of section .text:

00000248 <_start>:

    /*
     * Now that the caches are initialized, set up the stack pointer and global pointer.
     * The values provided by the linker are assumed to be correctly aligned.
     */
    movhi sp, %hi(__alt_stack_pointer)
     248:	06c10034 	movhi	sp,1024
    ori sp, sp, %lo(__alt_stack_pointer)
     24c:	dec00014 	ori	sp,sp,0
    movhi gp, %hi(_gp)
     250:	068000b4 	movhi	gp,2
    ori gp, gp, %lo(_gp)
     254:	d692a114 	ori	gp,gp,19076
 */
#ifndef ALT_SIM_OPTIMIZE
    /* Log that the BSS is about to be cleared. */
    ALT_LOG_PUTS(alt_log_msg_bss)

    movhi r2, %hi(__bss_start)
     258:	00800074 	movhi	r2,1
    ori r2, r2, %lo(__bss_start)
     25c:	10ba6e14 	ori	r2,r2,59832

    movhi r3, %hi(__bss_end)
     260:	00c000f4 	movhi	r3,3
    ori r3, r3, %lo(__bss_end)
     264:	18d72414 	ori	r3,r3,23696

    beq r2, r3, 1f
     268:	10c00326 	beq	r2,r3,278 <_start+0x30>

0:
    stw zero, (r2)
     26c:	10000015 	stw	zero,0(r2)
    addi r2, r2, 4
     270:	10800104 	addi	r2,r2,4
    bltu r2, r3, 0b
     274:	10fffd36 	bltu	r2,r3,26c <_start+0x24>
     * section aren't defined until alt_load() has been called).
     */
    mov   et, zero
#endif

    call alt_load
     278:	000c9740 	call	c974 <alt_load>

    /* Log that alt_main is about to be called. */
    ALT_LOG_PUTS(alt_log_msg_alt_main)

    /* Call the C entry point. It should never return. */
    call alt_main
     27c:	000c9f80 	call	c9f8 <alt_main>

00000280 <alt_after_alt_main>:

    /* Wait in infinite loop in case alt_main does return. */
alt_after_alt_main:
    br alt_after_alt_main
     280:	003fff06 	br	280 <alt_after_alt_main>

00000284 <main>:
 *                                                MAIN
 *********************************************************************************************************
 */

int  main(void)
{
     284:	defffd04 	addi	sp,sp,-12
     288:	dfc00215 	stw	ra,8(sp)
     28c:	df000115 	stw	fp,4(sp)
     290:	df000104 	addi	fp,sp,4
	INT8U err;

	VGA_clear();
     294:	0001b700 	call	1b70 <VGA_clear>
	VGA_clear_character();
     298:	0001bec0 	call	1bec <VGA_clear_character>

	OSInit();                                              /* Initialize uC/OS-II                      */
     29c:	000d6e40 	call	d6e4 <OSInit>

	//                       INITIALIZATIONS
	//event_flags
	sim_state = OSFlagCreate(0x00, &err);
     2a0:	e17fff04 	addi	r5,fp,-4
     2a4:	0009883a 	mov	r4,zero
     2a8:	000f3940 	call	f394 <OSFlagCreate>
     2ac:	d0a7d615 	stw	r2,-24744(gp)
	OSFlagPost(sim_state, sim_all, OS_FLAG_CLR, &err);
     2b0:	d0a7d617 	ldw	r2,-24744(gp)
     2b4:	e1ffff04 	addi	r7,fp,-4
     2b8:	000d883a 	mov	r6,zero
     2bc:	014001c4 	movi	r5,7
     2c0:	1009883a 	mov	r4,r2
     2c4:	000ff700 	call	ff70 <OSFlagPost>
	OSFlagPost(sim_state, sim_idle_state, OS_FLAG_SET, &err);
     2c8:	d0a7d617 	ldw	r2,-24744(gp)
     2cc:	e1ffff04 	addi	r7,fp,-4
     2d0:	01800044 	movi	r6,1
     2d4:	01400044 	movi	r5,1
     2d8:	1009883a 	mov	r4,r2
     2dc:	000ff700 	call	ff70 <OSFlagPost>

	runway_sem = OSSemCreate(1);
     2e0:	01000044 	movi	r4,1
     2e4:	0012b700 	call	12b70 <OSSemCreate>
     2e8:	d0a7d715 	stw	r2,-24740(gp)

	//semaphores
	expired_sem = OSSemCreate(0);
     2ec:	0009883a 	mov	r4,zero
     2f0:	0012b700 	call	12b70 <OSSemCreate>
     2f4:	d0a7d015 	stw	r2,-24768(gp)
	expired_ack_sem = OSSemCreate(0);
     2f8:	0009883a 	mov	r4,zero
     2fc:	0012b700 	call	12b70 <OSSemCreate>
     300:	d0a7d415 	stw	r2,-24752(gp)


	//mailboxes
	out_expire_mailbox = OSMboxCreate((void *)0);
     304:	0009883a 	mov	r4,zero
     308:	00108380 	call	10838 <OSMboxCreate>
     30c:	d0a7d915 	stw	r2,-24732(gp)
	in_expire_mailbox = OSMboxCreate((void *)0);
     310:	0009883a 	mov	r4,zero
     314:	00108380 	call	10838 <OSMboxCreate>
     318:	d0a7d215 	stw	r2,-24760(gp)

	//queues
	outbound_dsp_queue = OSQCreate(&outbound_dsp_messages[0], FLIGHT_LIMIT);
     31c:	01400804 	movi	r5,32
     320:	010000f4 	movhi	r4,3
     324:	21009404 	addi	r4,r4,592
     328:	0011afc0 	call	11afc <OSQCreate>
     32c:	d0a7d815 	stw	r2,-24736(gp)
	inbound_dsp_queue = OSQCreate(&inbound_dsp_messages[0], FLIGHT_LIMIT);
     330:	01400804 	movi	r5,32
     334:	010000f4 	movhi	r4,3
     338:	213c5404 	addi	r4,r4,-3760
     33c:	0011afc0 	call	11afc <OSQCreate>
     340:	d0a7ce15 	stw	r2,-24776(gp)


	inboundCount = 0;
     344:	d027d305 	stb	zero,-24756(gp)
	outboundCount = 0;
     348:	d027d505 	stb	zero,-24748(gp)

	create_tasks();
     34c:	000036c0 	call	36c <create_tasks>

	OSStart();                        /* Start multitasking   */
     350:	000d9ec0 	call	d9ec <OSStart>
	return 0;
     354:	0005883a 	mov	r2,zero
}
     358:	e037883a 	mov	sp,fp
     35c:	dfc00117 	ldw	ra,4(sp)
     360:	df000017 	ldw	fp,0(sp)
     364:	dec00204 	addi	sp,sp,8
     368:	f800283a 	ret

0000036c <create_tasks>:
 *                                             CREATE TASKS
 *********************************************************************************************************
 */

static  void  create_tasks(void)
{
     36c:	defffe04 	addi	sp,sp,-8
     370:	dfc00115 	stw	ra,4(sp)
     374:	df000015 	stw	fp,0(sp)
     378:	d839883a 	mov	fp,sp
	OSTaskCreate(display_task, (void *)0, &display_stack[TASK_STK_SIZE - 1], DISPLAY_PRIO);
     37c:	01c00944 	movi	r7,37
     380:	018000f4 	movhi	r6,3
     384:	31809304 	addi	r6,r6,588
     388:	000b883a 	mov	r5,zero
     38c:	01000034 	movhi	r4,0
     390:	21034b04 	addi	r4,r4,3372
     394:	0013a100 	call	13a10 <OSTaskCreate>
	OSTaskCreate(input_task, (void *)0, &input_stack[TASK_STK_SIZE - 1], INPUT_PRIO);
     398:	01c00984 	movi	r7,38
     39c:	018000f4 	movhi	r6,3
     3a0:	31be9304 	addi	r6,r6,-1460
     3a4:	000b883a 	mov	r5,zero
     3a8:	01000034 	movhi	r4,0
     3ac:	2103f504 	addi	r4,r4,4052
     3b0:	0013a100 	call	13a10 <OSTaskCreate>
}
     3b4:	0001883a 	nop
     3b8:	e037883a 	mov	sp,fp
     3bc:	dfc00117 	ldw	ra,4(sp)
     3c0:	df000017 	ldw	fp,0(sp)
     3c4:	dec00204 	addi	sp,sp,8
     3c8:	f800283a 	ret

000003cc <flight_task>:
 *                                                  TASKS
 *********************************************************************************************************
 */

void flight_task(void *pdata)
{
     3cc:	deffe704 	addi	sp,sp,-100
     3d0:	dfc01815 	stw	ra,96(sp)
     3d4:	df001715 	stw	fp,92(sp)
     3d8:	df001704 	addi	fp,sp,92
     3dc:	e13fff15 	stw	r4,-4(fp)
	//char dsp_msg[20];

	//int flightID;

	//int ETA_start = rand() % MAX_ETA + MIN_ETA;
	int ETA_time = 0;
     3e0:	e03fec15 	stw	zero,-80(fp)

	//int clear_start = 10;
	int clear_time = 0;
     3e4:	e03fed15 	stw	zero,-76(fp)

	//int free_start = 20;
	int free_time = 0;
     3e8:	e03fee15 	stw	zero,-72(fp)

	int pending_start = 0;
     3ec:	e03fe915 	stw	zero,-92(fp)
	int pending_time = 0;
     3f0:	e03fef15 	stw	zero,-68(fp)

	int wait_time = 0; // time for outbound flight to be ready for takeoff
     3f4:	e03fea15 	stw	zero,-88(fp)

	f = *((Flight *)pdata);
     3f8:	e0bfff17 	ldw	r2,-4(fp)
     3fc:	10c00017 	ldw	r3,0(r2)
     400:	e0fff215 	stw	r3,-56(fp)
     404:	10c00117 	ldw	r3,4(r2)
     408:	e0fff315 	stw	r3,-52(fp)
     40c:	10c00217 	ldw	r3,8(r2)
     410:	e0fff415 	stw	r3,-48(fp)
     414:	10c00317 	ldw	r3,12(r2)
     418:	e0fff515 	stw	r3,-44(fp)
     41c:	10c00417 	ldw	r3,16(r2)
     420:	e0fff615 	stw	r3,-40(fp)
     424:	10c00517 	ldw	r3,20(r2)
     428:	e0fff715 	stw	r3,-36(fp)
     42c:	10c00617 	ldw	r3,24(r2)
     430:	e0fff815 	stw	r3,-32(fp)
     434:	10c00717 	ldw	r3,28(r2)
     438:	e0fff915 	stw	r3,-28(fp)
     43c:	10c00817 	ldw	r3,32(r2)
     440:	e0fffa15 	stw	r3,-24(fp)
     444:	10c00917 	ldw	r3,36(r2)
     448:	e0fffb15 	stw	r3,-20(fp)
     44c:	10c00a17 	ldw	r3,40(r2)
     450:	e0fffc15 	stw	r3,-16(fp)
     454:	10c00b17 	ldw	r3,44(r2)
     458:	e0fffd15 	stw	r3,-12(fp)
     45c:	10800c17 	ldw	r2,48(r2)
     460:	e0bffe15 	stw	r2,-8(fp)
//		(void *)&wait_time,
//		(INT8U         *)"Wait Timer",
//		&err
//	);

	switch (err)
     464:	e0bff103 	ldbu	r2,-60(fp)
     468:	10803fcc 	andi	r2,r2,255
     46c:	10c020e0 	cmpeqi	r3,r2,131
     470:	1800131e 	bne	r3,zero,4c0 <flight_task+0xf4>
     474:	10c02108 	cmpgei	r3,r2,132
     478:	1800041e 	bne	r3,zero,48c <flight_task+0xc0>
     47c:	10002826 	beq	r2,zero,520 <flight_task+0x154>
     480:	108020a0 	cmpeqi	r2,r2,130
     484:	1000081e 	bne	r2,zero,4a8 <flight_task+0xdc>
     488:	00002606 	br	524 <flight_task+0x158>
     48c:	10c021a0 	cmpeqi	r3,r2,134
     490:	18001d1e 	bne	r3,zero,508 <flight_task+0x13c>
     494:	10c022e0 	cmpeqi	r3,r2,139
     498:	1800151e 	bne	r3,zero,4f0 <flight_task+0x124>
     49c:	10802120 	cmpeqi	r2,r2,132
     4a0:	10000d1e 	bne	r2,zero,4d8 <flight_task+0x10c>
     4a4:	00001f06 	br	524 <flight_task+0x158>
	{
	case OS_ERR_NONE:
		break;
	case OS_ERR_TMR_INVALID_DLY:
		VGA_text(30, 14, "OS_ERR_TMR_INVALID");
     4a8:	018000b4 	movhi	r6,2
     4ac:	31a8d004 	addi	r6,r6,-23744
     4b0:	01400384 	movi	r5,14
     4b4:	01000784 	movi	r4,30
     4b8:	00019bc0 	call	19bc <VGA_text>
		break;
     4bc:	00001906 	br	524 <flight_task+0x158>
	case OS_ERR_TMR_INVALID_PERIOD:
		VGA_text(30, 10, "OS_ERR_TMR_INVALID");
     4c0:	018000b4 	movhi	r6,2
     4c4:	31a8d004 	addi	r6,r6,-23744
     4c8:	01400284 	movi	r5,10
     4cc:	01000784 	movi	r4,30
     4d0:	00019bc0 	call	19bc <VGA_text>
		break;
     4d4:	00001306 	br	524 <flight_task+0x158>
	case OS_ERR_TMR_INVALID_OPT:
		VGA_text(30, 11, "OS_ERR_TMR_INVALID");
     4d8:	018000b4 	movhi	r6,2
     4dc:	31a8d004 	addi	r6,r6,-23744
     4e0:	014002c4 	movi	r5,11
     4e4:	01000784 	movi	r4,30
     4e8:	00019bc0 	call	19bc <VGA_text>
		break;
     4ec:	00000d06 	br	524 <flight_task+0x158>
	case OS_ERR_TMR_ISR:
		VGA_text(30, 12, "OS_ERR_TMR_INVALID");
     4f0:	018000b4 	movhi	r6,2
     4f4:	31a8d004 	addi	r6,r6,-23744
     4f8:	01400304 	movi	r5,12
     4fc:	01000784 	movi	r4,30
     500:	00019bc0 	call	19bc <VGA_text>
		break;
     504:	00000706 	br	524 <flight_task+0x158>
	case OS_ERR_TMR_NON_AVAIL:
		VGA_text(30, 13, "OS_ERR_TMR_INVALID");
     508:	018000b4 	movhi	r6,2
     50c:	31a8d004 	addi	r6,r6,-23744
     510:	01400344 	movi	r5,13
     514:	01000784 	movi	r4,30
     518:	00019bc0 	call	19bc <VGA_text>
		break;
     51c:	00000106 	br	524 <flight_task+0x158>
//	);

	switch (err)
	{
	case OS_ERR_NONE:
		break;
     520:	0001883a 	nop
		VGA_text(30, 13, "OS_ERR_TMR_INVALID");
		break;
	}
	//OSTmrStart(wait_timer, &err);

	switch (err)
     524:	e0bff103 	ldbu	r2,-60(fp)
     528:	10803fcc 	andi	r2,r2,255
     52c:	10c02260 	cmpeqi	r3,r2,137
     530:	1800131e 	bne	r3,zero,580 <flight_task+0x1b4>
     534:	10c02288 	cmpgei	r3,r2,138
     538:	1800041e 	bne	r3,zero,54c <flight_task+0x180>
     53c:	10002826 	beq	r2,zero,5e0 <flight_task+0x214>
     540:	108021e0 	cmpeqi	r2,r2,135
     544:	10001a1e 	bne	r2,zero,5b0 <flight_task+0x1e4>
     548:	00002606 	br	5e4 <flight_task+0x218>
     54c:	10c022e0 	cmpeqi	r3,r2,139
     550:	1800111e 	bne	r3,zero,598 <flight_task+0x1cc>
     554:	10c022d0 	cmplti	r3,r2,139
     558:	1800031e 	bne	r3,zero,568 <flight_task+0x19c>
     55c:	10802360 	cmpeqi	r2,r2,141
     560:	1000191e 	bne	r2,zero,5c8 <flight_task+0x1fc>
     564:	00001f06 	br	5e4 <flight_task+0x218>
	{
	case OS_ERR_NONE:
		break;
	case OS_ERR_TMR_INVALID:
		VGA_text(20, 14, "OS_ERR_TMR_INVALID");
     568:	018000b4 	movhi	r6,2
     56c:	31a8d004 	addi	r6,r6,-23744
     570:	01400384 	movi	r5,14
     574:	01000504 	movi	r4,20
     578:	00019bc0 	call	19bc <VGA_text>
		break;
     57c:	00001906 	br	5e4 <flight_task+0x218>
	case OS_ERR_TMR_INVALID_TYPE:
		VGA_text(20, 13, "OS_ERR_TMR_INVALID_TYPE");
     580:	018000b4 	movhi	r6,2
     584:	31a8d504 	addi	r6,r6,-23724
     588:	01400344 	movi	r5,13
     58c:	01000504 	movi	r4,20
     590:	00019bc0 	call	19bc <VGA_text>
		break;
     594:	00001306 	br	5e4 <flight_task+0x218>
	case OS_ERR_TMR_ISR:
		VGA_text(20, 12, "OS_ERR_TMR_ISR");
     598:	018000b4 	movhi	r6,2
     59c:	31a8db04 	addi	r6,r6,-23700
     5a0:	01400304 	movi	r5,12
     5a4:	01000504 	movi	r4,20
     5a8:	00019bc0 	call	19bc <VGA_text>
		break;
     5ac:	00000d06 	br	5e4 <flight_task+0x218>
	case OS_ERR_TMR_INACTIVE:
		VGA_text(20, 11, "OS_ERR_TMR_INACTIVE");
     5b0:	018000b4 	movhi	r6,2
     5b4:	31a8df04 	addi	r6,r6,-23684
     5b8:	014002c4 	movi	r5,11
     5bc:	01000504 	movi	r4,20
     5c0:	00019bc0 	call	19bc <VGA_text>
		break;
     5c4:	00000706 	br	5e4 <flight_task+0x218>
	case OS_ERR_TMR_INVALID_STATE:
		VGA_text(20, 10, "OS_ERR_TMR_INVALID_STATE");
     5c8:	018000b4 	movhi	r6,2
     5cc:	31a8e404 	addi	r6,r6,-23664
     5d0:	01400284 	movi	r5,10
     5d4:	01000504 	movi	r4,20
     5d8:	00019bc0 	call	19bc <VGA_text>
		break;
     5dc:	00000106 	br	5e4 <flight_task+0x218>
	//OSTmrStart(wait_timer, &err);

	switch (err)
	{
	case OS_ERR_NONE:
		break;
     5e0:	0001883a 	nop
	case OS_ERR_TMR_INVALID_STATE:
		VGA_text(20, 10, "OS_ERR_TMR_INVALID_STATE");
		break;
	}

	if (f.direction == 0)  //make outbound flight
     5e4:	e0bff417 	ldw	r2,-48(fp)
     5e8:	1000061e 	bne	r2,zero,604 <flight_task+0x238>
	{
		flight_state = OSFlagCreate(flight_outbound_state, &err);
     5ec:	e0bff104 	addi	r2,fp,-60
     5f0:	100b883a 	mov	r5,r2
     5f4:	01000084 	movi	r4,2
     5f8:	000f3940 	call	f394 <OSFlagCreate>
     5fc:	e0bfeb15 	stw	r2,-84(fp)
     600:	00000506 	br	618 <flight_task+0x24c>
	}
	else  //make inbound flight
	{
		flight_state = OSFlagCreate(flight_inbound_state, &err);
     604:	e0bff104 	addi	r2,fp,-60
     608:	100b883a 	mov	r5,r2
     60c:	01000044 	movi	r4,1
     610:	000f3940 	call	f394 <OSFlagCreate>
     614:	e0bfeb15 	stw	r2,-84(fp)
//	char s[20];
//	sprintf(s, "ETA %d", flight_data[f.prio].ETA_start);
//	VGA_text(35, 20, s);
	while (1)
	{
		flags = OSFlagAccept(sim_state, sim_running_state, OS_FLAG_WAIT_SET_ALL, &err);
     618:	d0a7d617 	ldw	r2,-24744(gp)
     61c:	e0fff104 	addi	r3,fp,-60
     620:	180f883a 	mov	r7,r3
     624:	01800084 	movi	r6,2
     628:	01400084 	movi	r5,2
     62c:	1009883a 	mov	r4,r2
     630:	000f08c0 	call	f08c <OSFlagAccept>
     634:	e0bff00d 	sth	r2,-64(fp)
		if (flags > 0)
     638:	e0bff00b 	ldhu	r2,-64(fp)
     63c:	1001ad26 	beq	r2,zero,cf4 <flight_task+0x928>
		{
			wait_time++;
     640:	e0bfea17 	ldw	r2,-88(fp)
     644:	10800044 	addi	r2,r2,1
     648:	e0bfea15 	stw	r2,-88(fp)
			flags = OSFlagAccept(flight_state, flight_free_state, OS_FLAG_WAIT_SET_ALL, &err);
     64c:	e0bff104 	addi	r2,fp,-60
     650:	100f883a 	mov	r7,r2
     654:	01800084 	movi	r6,2
     658:	01400804 	movi	r5,32
     65c:	e13feb17 	ldw	r4,-84(fp)
     660:	000f08c0 	call	f08c <OSFlagAccept>
     664:	e0bff00d 	sth	r2,-64(fp)
			if (flags > 0)
     668:	e0bff00b 	ldhu	r2,-64(fp)
     66c:	10003526 	beq	r2,zero,744 <flight_task+0x378>
			{
				// send message to scan input task to allow this flight to be reused
				//OSQPost(inbound_dsp_queue, (void *)&f);
				OSSemPost(expired_sem);
     670:	d0a7d017 	ldw	r2,-24768(gp)
     674:	1009883a 	mov	r4,r2
     678:	00132000 	call	13200 <OSSemPost>
				OSSemPend(expired_ack_sem, 0, &err);
     67c:	d0a7d417 	ldw	r2,-24752(gp)
     680:	e0fff104 	addi	r3,fp,-60
     684:	180d883a 	mov	r6,r3
     688:	000b883a 	mov	r5,zero
     68c:	1009883a 	mov	r4,r2
     690:	0012e880 	call	12e88 <OSSemPend>

				f.ID = totalFlights;
     694:	d0a7cd03 	ldbu	r2,-24780(gp)
     698:	10803fcc 	andi	r2,r2,255
     69c:	e0bff215 	stw	r2,-56(fp)
				++totalFlights;
     6a0:	d0a7cd03 	ldbu	r2,-24780(gp)
     6a4:	10800044 	addi	r2,r2,1
     6a8:	d0a7cd05 	stb	r2,-24780(gp)

				//f.ETA_start = f.ETA_start; //randomize
				ETA_time = 0;
     6ac:	e03fec15 	stw	zero,-80(fp)
				//f.clear_start = f.clear_start;
				clear_time = 0;
     6b0:	e03fed15 	stw	zero,-76(fp)
				//f.free_start = f.free_start;
				free_time = 0;
     6b4:	e03fee15 	stw	zero,-72(fp)
				pending_time = 0;
     6b8:	e03fef15 	stw	zero,-68(fp)
				wait_time = 0;
     6bc:	e03fea15 	stw	zero,-88(fp)

				if (f.direction == 0)
     6c0:	e0bff417 	ldw	r2,-48(fp)
     6c4:	1000101e 	bne	r2,zero,708 <flight_task+0x33c>
				{
					outboundCount++;
     6c8:	d0a7d503 	ldbu	r2,-24748(gp)
     6cc:	10800044 	addi	r2,r2,1
     6d0:	d0a7d505 	stb	r2,-24748(gp)
					OSFlagPost(flight_state, flight_all, OS_FLAG_CLR, &err);
     6d4:	e0bff104 	addi	r2,fp,-60
     6d8:	100f883a 	mov	r7,r2
     6dc:	000d883a 	mov	r6,zero
     6e0:	01403fc4 	movi	r5,255
     6e4:	e13feb17 	ldw	r4,-84(fp)
     6e8:	000ff700 	call	ff70 <OSFlagPost>
					OSFlagPost(flight_state, flight_outbound_state, OS_FLAG_SET, &err);
     6ec:	e0bff104 	addi	r2,fp,-60
     6f0:	100f883a 	mov	r7,r2
     6f4:	01800044 	movi	r6,1
     6f8:	01400084 	movi	r5,2
     6fc:	e13feb17 	ldw	r4,-84(fp)
     700:	000ff700 	call	ff70 <OSFlagPost>
     704:	00000f06 	br	744 <flight_task+0x378>
				}
				else
				{
					inboundCount++;
     708:	d0a7d303 	ldbu	r2,-24756(gp)
     70c:	10800044 	addi	r2,r2,1
     710:	d0a7d305 	stb	r2,-24756(gp)
					OSFlagPost(flight_state, flight_all, OS_FLAG_CLR, &err);
     714:	e0bff104 	addi	r2,fp,-60
     718:	100f883a 	mov	r7,r2
     71c:	000d883a 	mov	r6,zero
     720:	01403fc4 	movi	r5,255
     724:	e13feb17 	ldw	r4,-84(fp)
     728:	000ff700 	call	ff70 <OSFlagPost>
					OSFlagPost(flight_state, flight_inbound_state, OS_FLAG_SET, &err);
     72c:	e0bff104 	addi	r2,fp,-60
     730:	100f883a 	mov	r7,r2
     734:	01800044 	movi	r6,1
     738:	01400044 	movi	r5,1
     73c:	e13feb17 	ldw	r4,-84(fp)
     740:	000ff700 	call	ff70 <OSFlagPost>
				//sprintf(s, "prio: %d", f.prio);
				//VGA_text(35, 10, s);
			}


			flags = OSFlagAccept(flight_state, flight_inbound_state, OS_FLAG_WAIT_SET_ALL, &err);
     744:	e0bff104 	addi	r2,fp,-60
     748:	100f883a 	mov	r7,r2
     74c:	01800084 	movi	r6,2
     750:	01400044 	movi	r5,1
     754:	e13feb17 	ldw	r4,-84(fp)
     758:	000f08c0 	call	f08c <OSFlagAccept>
     75c:	e0bff00d 	sth	r2,-64(fp)
			if (flags > 0)
     760:	e0bff00b 	ldhu	r2,-64(fp)
     764:	10003026 	beq	r2,zero,828 <flight_task+0x45c>
			{
				//OSTmrStart(wait_timer, &err);// restart timer if it was paused
				ETA_time = f.ETA_start - wait_time;
     768:	e0fff717 	ldw	r3,-36(fp)
     76c:	e0bfea17 	ldw	r2,-88(fp)
     770:	1885c83a 	sub	r2,r3,r2
     774:	e0bfec15 	stw	r2,-80(fp)

				sprintf(f.msg, "Flight #%03d ETA %d    ", f.ID, ETA_time);
     778:	e0fff217 	ldw	r3,-56(fp)
     77c:	e0bff204 	addi	r2,fp,-56
     780:	10800804 	addi	r2,r2,32
     784:	e1ffec17 	ldw	r7,-80(fp)
     788:	180d883a 	mov	r6,r3
     78c:	014000b4 	movhi	r5,2
     790:	2968eb04 	addi	r5,r5,-23636
     794:	1009883a 	mov	r4,r2
     798:	0001d3c0 	call	1d3c <sprintf>
				OSQPost(inbound_dsp_queue, (void *)&f);
     79c:	d0a7ce17 	ldw	r2,-24776(gp)
     7a0:	e0fff204 	addi	r3,fp,-56
     7a4:	180b883a 	mov	r5,r3
     7a8:	1009883a 	mov	r4,r2
     7ac:	00123d80 	call	123d8 <OSQPost>

				if (ETA_time <= 0)
     7b0:	e0bfec17 	ldw	r2,-80(fp)
     7b4:	00801c16 	blt	zero,r2,828 <flight_task+0x45c>
				{
					ETA_time = 0;
     7b8:	e03fec15 	stw	zero,-80(fp)

					/* pend runway */
					sprintf(f.msg, "Flight #%03d pending  ", f.ID);
     7bc:	e0fff217 	ldw	r3,-56(fp)
     7c0:	e0bff204 	addi	r2,fp,-56
     7c4:	10800804 	addi	r2,r2,32
     7c8:	180d883a 	mov	r6,r3
     7cc:	014000b4 	movhi	r5,2
     7d0:	2968f104 	addi	r5,r5,-23612
     7d4:	1009883a 	mov	r4,r2
     7d8:	0001d3c0 	call	1d3c <sprintf>
					OSQPost(inbound_dsp_queue, (void *)&f);
     7dc:	d0a7ce17 	ldw	r2,-24776(gp)
     7e0:	e0fff204 	addi	r3,fp,-56
     7e4:	180b883a 	mov	r5,r3
     7e8:	1009883a 	mov	r4,r2
     7ec:	00123d80 	call	123d8 <OSQPost>
					OSFlagPost(flight_state, flight_all, OS_FLAG_CLR, &err);
     7f0:	e0bff104 	addi	r2,fp,-60
     7f4:	100f883a 	mov	r7,r2
     7f8:	000d883a 	mov	r6,zero
     7fc:	01403fc4 	movi	r5,255
     800:	e13feb17 	ldw	r4,-84(fp)
     804:	000ff700 	call	ff70 <OSFlagPost>
					OSFlagPost(flight_state, flight_pending_runway, OS_FLAG_SET, &err);
     808:	e0bff104 	addi	r2,fp,-60
     80c:	100f883a 	mov	r7,r2
     810:	01800044 	movi	r6,1
     814:	01400204 	movi	r5,8
     818:	e13feb17 	ldw	r4,-84(fp)
     81c:	000ff700 	call	ff70 <OSFlagPost>
					pending_start = wait_time;
     820:	e0bfea17 	ldw	r2,-88(fp)
     824:	e0bfe915 	stw	r2,-92(fp)

				}
			}

			flags = OSFlagAccept(flight_state, flight_outbound_state, OS_FLAG_WAIT_SET_ALL, &err);
     828:	e0bff104 	addi	r2,fp,-60
     82c:	100f883a 	mov	r7,r2
     830:	01800084 	movi	r6,2
     834:	01400084 	movi	r5,2
     838:	e13feb17 	ldw	r4,-84(fp)
     83c:	000f08c0 	call	f08c <OSFlagAccept>
     840:	e0bff00d 	sth	r2,-64(fp)
			if (flags > 0)
     844:	e0bff00b 	ldhu	r2,-64(fp)
     848:	10003126 	beq	r2,zero,910 <flight_task+0x544>
			{
				//OSTmrStart(wait_timer, &err);// restart timer if it was paused
				ETA_time = f.ETA_start - wait_time;
     84c:	e0fff717 	ldw	r3,-36(fp)
     850:	e0bfea17 	ldw	r2,-88(fp)
     854:	1885c83a 	sub	r2,r3,r2
     858:	e0bfec15 	stw	r2,-80(fp)

				sprintf(f.msg, "Flight #%03d ETA %d  ", f.ID, ETA_time);
     85c:	e0fff217 	ldw	r3,-56(fp)
     860:	e0bff204 	addi	r2,fp,-56
     864:	10800804 	addi	r2,r2,32
     868:	e1ffec17 	ldw	r7,-80(fp)
     86c:	180d883a 	mov	r6,r3
     870:	014000b4 	movhi	r5,2
     874:	2968f704 	addi	r5,r5,-23588
     878:	1009883a 	mov	r4,r2
     87c:	0001d3c0 	call	1d3c <sprintf>
				OSQPost(outbound_dsp_queue, (void *)&f);
     880:	d0a7d817 	ldw	r2,-24736(gp)
     884:	e0fff204 	addi	r3,fp,-56
     888:	180b883a 	mov	r5,r3
     88c:	1009883a 	mov	r4,r2
     890:	00123d80 	call	123d8 <OSQPost>

				if (ETA_time <= 0)
     894:	e0bfec17 	ldw	r2,-80(fp)
     898:	00801d16 	blt	zero,r2,910 <flight_task+0x544>
				{
					ETA_time = 0;
     89c:	e03fec15 	stw	zero,-80(fp)

					/* pend runway */
					sprintf(f.msg, "Flight #%03d pending    ", f.ID);
     8a0:	e0fff217 	ldw	r3,-56(fp)
     8a4:	e0bff204 	addi	r2,fp,-56
     8a8:	10800804 	addi	r2,r2,32
     8ac:	180d883a 	mov	r6,r3
     8b0:	014000b4 	movhi	r5,2
     8b4:	2968fd04 	addi	r5,r5,-23564
     8b8:	1009883a 	mov	r4,r2
     8bc:	0001d3c0 	call	1d3c <sprintf>
					OSQPost(outbound_dsp_queue, (void *)&f);
     8c0:	d0a7d817 	ldw	r2,-24736(gp)
     8c4:	e0fff204 	addi	r3,fp,-56
     8c8:	180b883a 	mov	r5,r3
     8cc:	1009883a 	mov	r4,r2
     8d0:	00123d80 	call	123d8 <OSQPost>
					OSFlagPost(flight_state, flight_all, OS_FLAG_CLR, &err);
     8d4:	e0bff104 	addi	r2,fp,-60
     8d8:	100f883a 	mov	r7,r2
     8dc:	000d883a 	mov	r6,zero
     8e0:	01403fc4 	movi	r5,255
     8e4:	e13feb17 	ldw	r4,-84(fp)
     8e8:	000ff700 	call	ff70 <OSFlagPost>
					OSFlagPost(flight_state, flight_pending_runway, OS_FLAG_SET, &err);
     8ec:	e0bff104 	addi	r2,fp,-60
     8f0:	100f883a 	mov	r7,r2
     8f4:	01800044 	movi	r6,1
     8f8:	01400204 	movi	r5,8
     8fc:	e13feb17 	ldw	r4,-84(fp)
     900:	000ff700 	call	ff70 <OSFlagPost>
					wait_time = 0;
     904:	e03fea15 	stw	zero,-88(fp)
					pending_start = wait_time;
     908:	e0bfea17 	ldw	r2,-88(fp)
     90c:	e0bfe915 	stw	r2,-92(fp)

				}
			}
			flags = OSFlagAccept(flight_state, flight_on_runway_state, OS_FLAG_WAIT_SET_ALL, &err);
     910:	e0bff104 	addi	r2,fp,-60
     914:	100f883a 	mov	r7,r2
     918:	01800084 	movi	r6,2
     91c:	01400104 	movi	r5,4
     920:	e13feb17 	ldw	r4,-84(fp)
     924:	000f08c0 	call	f08c <OSFlagAccept>
     928:	e0bff00d 	sth	r2,-64(fp)
			if (flags > 0)
     92c:	e0bff00b 	ldhu	r2,-64(fp)
     930:	10005226 	beq	r2,zero,a7c <flight_task+0x6b0>
			{
				//OSTmrStart(wait_timer, &err);// restart timer if it was paused
				clear_time = f.clear_start - wait_time;
     934:	e0fff817 	ldw	r3,-32(fp)
     938:	e0bfea17 	ldw	r2,-88(fp)
     93c:	1885c83a 	sub	r2,r3,r2
     940:	e0bfed15 	stw	r2,-76(fp)

				if (f.direction == 0)
     944:	e0bff417 	ldw	r2,-48(fp)
     948:	10000e1e 	bne	r2,zero,984 <flight_task+0x5b8>
				{
					sprintf(f.msg, "Flight #%03d (Takeoff)    ", f.ID);
     94c:	e0fff217 	ldw	r3,-56(fp)
     950:	e0bff204 	addi	r2,fp,-56
     954:	10800804 	addi	r2,r2,32
     958:	180d883a 	mov	r6,r3
     95c:	014000b4 	movhi	r5,2
     960:	29690404 	addi	r5,r5,-23536
     964:	1009883a 	mov	r4,r2
     968:	0001d3c0 	call	1d3c <sprintf>
					OSQPost(outbound_dsp_queue, (void *)&f);
     96c:	d0a7d817 	ldw	r2,-24736(gp)
     970:	e0fff204 	addi	r3,fp,-56
     974:	180b883a 	mov	r5,r3
     978:	1009883a 	mov	r4,r2
     97c:	00123d80 	call	123d8 <OSQPost>
     980:	00000d06 	br	9b8 <flight_task+0x5ec>
				}
				else
				{
					sprintf(f.msg, "Flight #%03d (Landing)  ", f.ID);
     984:	e0fff217 	ldw	r3,-56(fp)
     988:	e0bff204 	addi	r2,fp,-56
     98c:	10800804 	addi	r2,r2,32
     990:	180d883a 	mov	r6,r3
     994:	014000b4 	movhi	r5,2
     998:	29690b04 	addi	r5,r5,-23508
     99c:	1009883a 	mov	r4,r2
     9a0:	0001d3c0 	call	1d3c <sprintf>
					OSQPost(inbound_dsp_queue, (void *)&f);
     9a4:	d0a7ce17 	ldw	r2,-24776(gp)
     9a8:	e0fff204 	addi	r3,fp,-56
     9ac:	180b883a 	mov	r5,r3
     9b0:	1009883a 	mov	r4,r2
     9b4:	00123d80 	call	123d8 <OSQPost>
				}


				if (clear_time <= 0)
     9b8:	e0bfed17 	ldw	r2,-76(fp)
     9bc:	00802f16 	blt	zero,r2,a7c <flight_task+0x6b0>
				{
					clear_time = 0;
     9c0:	e03fed15 	stw	zero,-76(fp)
					/* start timer to free memory*/
					/* release runway */
					err = OSSemPost(runway_sem);
     9c4:	d0a7d717 	ldw	r2,-24740(gp)
     9c8:	1009883a 	mov	r4,r2
     9cc:	00132000 	call	13200 <OSSemPost>
     9d0:	e0bff105 	stb	r2,-60(fp)
					OSFlagPost(flight_state, flight_all, OS_FLAG_CLR, &err);
     9d4:	e0bff104 	addi	r2,fp,-60
     9d8:	100f883a 	mov	r7,r2
     9dc:	000d883a 	mov	r6,zero
     9e0:	01403fc4 	movi	r5,255
     9e4:	e13feb17 	ldw	r4,-84(fp)
     9e8:	000ff700 	call	ff70 <OSFlagPost>
					OSFlagPost(flight_state, flight_cleared_runway, OS_FLAG_SET, &err);
     9ec:	e0bff104 	addi	r2,fp,-60
     9f0:	100f883a 	mov	r7,r2
     9f4:	01800044 	movi	r6,1
     9f8:	01400404 	movi	r5,16
     9fc:	e13feb17 	ldw	r4,-84(fp)
     a00:	000ff700 	call	ff70 <OSFlagPost>

					if (f.direction == 0)
     a04:	e0bff417 	ldw	r2,-48(fp)
     a08:	10000e1e 	bne	r2,zero,a44 <flight_task+0x678>
					{
						sprintf(f.msg, "Flight #%03d (Clear)    ", f.ID);
     a0c:	e0fff217 	ldw	r3,-56(fp)
     a10:	e0bff204 	addi	r2,fp,-56
     a14:	10800804 	addi	r2,r2,32
     a18:	180d883a 	mov	r6,r3
     a1c:	014000b4 	movhi	r5,2
     a20:	29691204 	addi	r5,r5,-23480
     a24:	1009883a 	mov	r4,r2
     a28:	0001d3c0 	call	1d3c <sprintf>
						OSQPost(outbound_dsp_queue, (void *)&f);
     a2c:	d0a7d817 	ldw	r2,-24736(gp)
     a30:	e0fff204 	addi	r3,fp,-56
     a34:	180b883a 	mov	r5,r3
     a38:	1009883a 	mov	r4,r2
     a3c:	00123d80 	call	123d8 <OSQPost>
     a40:	00000d06 	br	a78 <flight_task+0x6ac>
					}
					else
					{
						sprintf(f.msg, "Flight #%03d (Clear)   ", f.ID);
     a44:	e0fff217 	ldw	r3,-56(fp)
     a48:	e0bff204 	addi	r2,fp,-56
     a4c:	10800804 	addi	r2,r2,32
     a50:	180d883a 	mov	r6,r3
     a54:	014000b4 	movhi	r5,2
     a58:	29691904 	addi	r5,r5,-23452
     a5c:	1009883a 	mov	r4,r2
     a60:	0001d3c0 	call	1d3c <sprintf>
						OSQPost(inbound_dsp_queue, (void *)&f);
     a64:	d0a7ce17 	ldw	r2,-24776(gp)
     a68:	e0fff204 	addi	r3,fp,-56
     a6c:	180b883a 	mov	r5,r3
     a70:	1009883a 	mov	r4,r2
     a74:	00123d80 	call	123d8 <OSQPost>
					}


					wait_time = 0;
     a78:	e03fea15 	stw	zero,-88(fp)
				}
			}
			flags = OSFlagAccept(flight_state, flight_pending_runway, OS_FLAG_WAIT_SET_ALL, &err);
     a7c:	e0bff104 	addi	r2,fp,-60
     a80:	100f883a 	mov	r7,r2
     a84:	01800084 	movi	r6,2
     a88:	01400204 	movi	r5,8
     a8c:	e13feb17 	ldw	r4,-84(fp)
     a90:	000f08c0 	call	f08c <OSFlagAccept>
     a94:	e0bff00d 	sth	r2,-64(fp)
			if (flags > 0)
     a98:	e0bff00b 	ldhu	r2,-64(fp)
     a9c:	10005326 	beq	r2,zero,bec <flight_task+0x820>
			{
				//OSTmrStart(wait_timer, &err);// restart timer if it was paused
				pending_time = wait_time - pending_start;
     aa0:	e0ffea17 	ldw	r3,-88(fp)
     aa4:	e0bfe917 	ldw	r2,-92(fp)
     aa8:	1885c83a 	sub	r2,r3,r2
     aac:	e0bfef15 	stw	r2,-68(fp)

				if (f.direction == 0)
     ab0:	e0bff417 	ldw	r2,-48(fp)
     ab4:	10000f1e 	bne	r2,zero,af4 <flight_task+0x728>
				{
					sprintf(f.msg, "Flight #%03d Pending %d   ", f.ID, pending_time);
     ab8:	e0fff217 	ldw	r3,-56(fp)
     abc:	e0bff204 	addi	r2,fp,-56
     ac0:	10800804 	addi	r2,r2,32
     ac4:	e1ffef17 	ldw	r7,-68(fp)
     ac8:	180d883a 	mov	r6,r3
     acc:	014000b4 	movhi	r5,2
     ad0:	29691f04 	addi	r5,r5,-23428
     ad4:	1009883a 	mov	r4,r2
     ad8:	0001d3c0 	call	1d3c <sprintf>
					OSQPost(outbound_dsp_queue, (void *)&f);
     adc:	d0a7d817 	ldw	r2,-24736(gp)
     ae0:	e0fff204 	addi	r3,fp,-56
     ae4:	180b883a 	mov	r5,r3
     ae8:	1009883a 	mov	r4,r2
     aec:	00123d80 	call	123d8 <OSQPost>
     af0:	00000e06 	br	b2c <flight_task+0x760>
				}
				else
				{
					sprintf(f.msg, "Flight #%03d Pending %d   ", f.ID, pending_time);
     af4:	e0fff217 	ldw	r3,-56(fp)
     af8:	e0bff204 	addi	r2,fp,-56
     afc:	10800804 	addi	r2,r2,32
     b00:	e1ffef17 	ldw	r7,-68(fp)
     b04:	180d883a 	mov	r6,r3
     b08:	014000b4 	movhi	r5,2
     b0c:	29691f04 	addi	r5,r5,-23428
     b10:	1009883a 	mov	r4,r2
     b14:	0001d3c0 	call	1d3c <sprintf>
					OSQPost(inbound_dsp_queue, (void *)&f);
     b18:	d0a7ce17 	ldw	r2,-24776(gp)
     b1c:	e0fff204 	addi	r3,fp,-56
     b20:	180b883a 	mov	r5,r3
     b24:	1009883a 	mov	r4,r2
     b28:	00123d80 	call	123d8 <OSQPost>
				}



				value = OSSemAccept(runway_sem);
     b2c:	d0a7d717 	ldw	r2,-24740(gp)
     b30:	1009883a 	mov	r4,r2
     b34:	0012ac00 	call	12ac0 <OSSemAccept>
     b38:	e0bff08d 	sth	r2,-62(fp)
				if (value > 0) {
     b3c:	e0bff08b 	ldhu	r2,-62(fp)
     b40:	10002a26 	beq	r2,zero,bec <flight_task+0x820>
					OSFlagPost(flight_state, flight_all, OS_FLAG_CLR, &err);
     b44:	e0bff104 	addi	r2,fp,-60
     b48:	100f883a 	mov	r7,r2
     b4c:	000d883a 	mov	r6,zero
     b50:	01403fc4 	movi	r5,255
     b54:	e13feb17 	ldw	r4,-84(fp)
     b58:	000ff700 	call	ff70 <OSFlagPost>
					OSFlagPost(flight_state, flight_on_runway_state, OS_FLAG_SET, &err);
     b5c:	e0bff104 	addi	r2,fp,-60
     b60:	100f883a 	mov	r7,r2
     b64:	01800044 	movi	r6,1
     b68:	01400104 	movi	r5,4
     b6c:	e13feb17 	ldw	r4,-84(fp)
     b70:	000ff700 	call	ff70 <OSFlagPost>

					if (f.direction == 0)
     b74:	e0bff417 	ldw	r2,-48(fp)
     b78:	10000e1e 	bne	r2,zero,bb4 <flight_task+0x7e8>
					{
						sprintf(f.msg, "Flight #%03d (Takeoff)    ", f.ID);
     b7c:	e0fff217 	ldw	r3,-56(fp)
     b80:	e0bff204 	addi	r2,fp,-56
     b84:	10800804 	addi	r2,r2,32
     b88:	180d883a 	mov	r6,r3
     b8c:	014000b4 	movhi	r5,2
     b90:	29690404 	addi	r5,r5,-23536
     b94:	1009883a 	mov	r4,r2
     b98:	0001d3c0 	call	1d3c <sprintf>
						OSQPost(outbound_dsp_queue, (void *)&f);
     b9c:	d0a7d817 	ldw	r2,-24736(gp)
     ba0:	e0fff204 	addi	r3,fp,-56
     ba4:	180b883a 	mov	r5,r3
     ba8:	1009883a 	mov	r4,r2
     bac:	00123d80 	call	123d8 <OSQPost>
     bb0:	00000d06 	br	be8 <flight_task+0x81c>
					}
					else
					{
						sprintf(f.msg, "Flight #%03d (Landing)    ", f.ID);
     bb4:	e0fff217 	ldw	r3,-56(fp)
     bb8:	e0bff204 	addi	r2,fp,-56
     bbc:	10800804 	addi	r2,r2,32
     bc0:	180d883a 	mov	r6,r3
     bc4:	014000b4 	movhi	r5,2
     bc8:	29692604 	addi	r5,r5,-23400
     bcc:	1009883a 	mov	r4,r2
     bd0:	0001d3c0 	call	1d3c <sprintf>
						OSQPost(inbound_dsp_queue, (void *)&f);
     bd4:	d0a7ce17 	ldw	r2,-24776(gp)
     bd8:	e0fff204 	addi	r3,fp,-56
     bdc:	180b883a 	mov	r5,r3
     be0:	1009883a 	mov	r4,r2
     be4:	00123d80 	call	123d8 <OSQPost>
					}

					/* start on runway timer (aka clear_timer)*/
					wait_time = 0;
     be8:	e03fea15 	stw	zero,-88(fp)
				}
			}
			flags = OSFlagAccept(flight_state, flight_cleared_runway, OS_FLAG_WAIT_SET_ALL, &err);
     bec:	e0bff104 	addi	r2,fp,-60
     bf0:	100f883a 	mov	r7,r2
     bf4:	01800084 	movi	r6,2
     bf8:	01400404 	movi	r5,16
     bfc:	e13feb17 	ldw	r4,-84(fp)
     c00:	000f08c0 	call	f08c <OSFlagAccept>
     c04:	e0bff00d 	sth	r2,-64(fp)
			if (flags > 0)
     c08:	e0bff00b 	ldhu	r2,-64(fp)
     c0c:	10003926 	beq	r2,zero,cf4 <flight_task+0x928>
			{
				//OSTmrStart(wait_timer, &err);// restart timer if it was paused
				free_time = f.free_start - wait_time;
     c10:	e0fff917 	ldw	r3,-28(fp)
     c14:	e0bfea17 	ldw	r2,-88(fp)
     c18:	1885c83a 	sub	r2,r3,r2
     c1c:	e0bfee15 	stw	r2,-72(fp)

				if (f.direction == 0)
     c20:	e0bff417 	ldw	r2,-48(fp)
     c24:	10000e1e 	bne	r2,zero,c60 <flight_task+0x894>
				{
					sprintf(f.msg, "Flight #%03d (Clear)  ", f.ID);
     c28:	e0fff217 	ldw	r3,-56(fp)
     c2c:	e0bff204 	addi	r2,fp,-56
     c30:	10800804 	addi	r2,r2,32
     c34:	180d883a 	mov	r6,r3
     c38:	014000b4 	movhi	r5,2
     c3c:	29692d04 	addi	r5,r5,-23372
     c40:	1009883a 	mov	r4,r2
     c44:	0001d3c0 	call	1d3c <sprintf>
					OSQPost(outbound_dsp_queue, (void *)&f);
     c48:	d0a7d817 	ldw	r2,-24736(gp)
     c4c:	e0fff204 	addi	r3,fp,-56
     c50:	180b883a 	mov	r5,r3
     c54:	1009883a 	mov	r4,r2
     c58:	00123d80 	call	123d8 <OSQPost>
     c5c:	00000d06 	br	c94 <flight_task+0x8c8>
				}
				else
				{
					sprintf(f.msg, "Flight #%03d (Clear)   ", f.ID);
     c60:	e0fff217 	ldw	r3,-56(fp)
     c64:	e0bff204 	addi	r2,fp,-56
     c68:	10800804 	addi	r2,r2,32
     c6c:	180d883a 	mov	r6,r3
     c70:	014000b4 	movhi	r5,2
     c74:	29691904 	addi	r5,r5,-23452
     c78:	1009883a 	mov	r4,r2
     c7c:	0001d3c0 	call	1d3c <sprintf>
					OSQPost(inbound_dsp_queue, (void *)&f);
     c80:	d0a7ce17 	ldw	r2,-24776(gp)
     c84:	e0fff204 	addi	r3,fp,-56
     c88:	180b883a 	mov	r5,r3
     c8c:	1009883a 	mov	r4,r2
     c90:	00123d80 	call	123d8 <OSQPost>
				}

				if (free_time <= 0)
     c94:	e0bfee17 	ldw	r2,-72(fp)
     c98:	00801616 	blt	zero,r2,cf4 <flight_task+0x928>
				{
					free_time = 0;
     c9c:	e03fee15 	stw	zero,-72(fp)
					if (f.direction == 0)
     ca0:	e0bff417 	ldw	r2,-48(fp)
     ca4:	1000041e 	bne	r2,zero,cb8 <flight_task+0x8ec>
					{
						outboundCount--;
     ca8:	d0a7d503 	ldbu	r2,-24748(gp)
     cac:	10bfffc4 	addi	r2,r2,-1
     cb0:	d0a7d505 	stb	r2,-24748(gp)
     cb4:	00000306 	br	cc4 <flight_task+0x8f8>
					}
					else
					{
						inboundCount--;
     cb8:	d0a7d303 	ldbu	r2,-24756(gp)
     cbc:	10bfffc4 	addi	r2,r2,-1
     cc0:	d0a7d305 	stb	r2,-24756(gp)
					}
					/* free up resources */
					OSFlagPost(flight_state, flight_all, OS_FLAG_CLR, &err);
     cc4:	e0bff104 	addi	r2,fp,-60
     cc8:	100f883a 	mov	r7,r2
     ccc:	000d883a 	mov	r6,zero
     cd0:	01403fc4 	movi	r5,255
     cd4:	e13feb17 	ldw	r4,-84(fp)
     cd8:	000ff700 	call	ff70 <OSFlagPost>
					OSFlagPost(flight_state, flight_free_state, OS_FLAG_SET, &err);
     cdc:	e0bff104 	addi	r2,fp,-60
     ce0:	100f883a 	mov	r7,r2
     ce4:	01800044 	movi	r6,1
     ce8:	01400804 	movi	r5,32
     cec:	e13feb17 	ldw	r4,-84(fp)
     cf0:	000ff700 	call	ff70 <OSFlagPost>
				}
			}

		}

		flags = OSFlagAccept(sim_state, sim_paused_state, OS_FLAG_WAIT_SET_ALL, &err);
     cf4:	d0a7d617 	ldw	r2,-24744(gp)
     cf8:	e0fff104 	addi	r3,fp,-60
     cfc:	180f883a 	mov	r7,r3
     d00:	01800084 	movi	r6,2
     d04:	01400104 	movi	r5,4
     d08:	1009883a 	mov	r4,r2
     d0c:	000f08c0 	call	f08c <OSFlagAccept>
     d10:	e0bff00d 	sth	r2,-64(fp)
		if (flags > 0)
		{
			//OSTmrStop(wait_timer, OS_TMR_OPT_NONE, (void *)0, &err);
		}

		OSTimeDlyHMSM(0, 0, 1, 0);
     d14:	000f883a 	mov	r7,zero
     d18:	01800044 	movi	r6,1
     d1c:	000b883a 	mov	r5,zero
     d20:	0009883a 	mov	r4,zero
     d24:	0014d900 	call	14d90 <OSTimeDlyHMSM>
	}
     d28:	003e3b06 	br	618 <flight_task+0x24c>

00000d2c <display_task>:

}

void display_task(void *pdata)
{
     d2c:	defff504 	addi	sp,sp,-44
     d30:	dfc00a15 	stw	ra,40(sp)
     d34:	df000915 	stw	fp,36(sp)
     d38:	df000904 	addi	fp,sp,36
     d3c:	e13fff15 	stw	r4,-4(fp)
	INT8U err;
	Flight *outbound_msgs;
	Flight *inbound_msgs;

	OS_SEM_DATA sem_data;
	VGA_clear();
     d40:	0001b700 	call	1b70 <VGA_clear>
	while (1)
	{
		//VGA_clear_character();
		//VGA_clear_character();
		//VGA_clear();
		flags = OSFlagAccept(sim_state, sim_idle_state, OS_FLAG_WAIT_SET_ALL, &err);
     d44:	d0a7d617 	ldw	r2,-24744(gp)
     d48:	e0fffc04 	addi	r3,fp,-16
     d4c:	180f883a 	mov	r7,r3
     d50:	01800084 	movi	r6,2
     d54:	01400044 	movi	r5,1
     d58:	1009883a 	mov	r4,r2
     d5c:	000f08c0 	call	f08c <OSFlagAccept>
     d60:	e0bff90d 	sth	r2,-28(fp)
		if (flags > 0)
     d64:	e0bff90b 	ldhu	r2,-28(fp)
     d68:	10000a26 	beq	r2,zero,d94 <display_task+0x68>
		{
			switch (err) {
     d6c:	e0bffc03 	ldbu	r2,-16(fp)
     d70:	10803fcc 	andi	r2,r2,255
     d74:	1000061e 	bne	r2,zero,d90 <display_task+0x64>
			case OS_NO_ERR:
				//"                                                                                  "
				VGA_text(0, 1, "                          Press Key0 to Start Simulation                          ");
     d78:	018000b4 	movhi	r6,2
     d7c:	31a93304 	addi	r6,r6,-23348
     d80:	01400044 	movi	r5,1
     d84:	0009883a 	mov	r4,zero
     d88:	00019bc0 	call	19bc <VGA_text>
				break;
     d8c:	00000106 	br	d94 <display_task+0x68>
			case OS_TIMEOUT:
				//PC_DispStr(1, 1, "error: OS_TIMEOUT", DISP_FGND_RED + DISP_BGND_BLACK);
				break;
     d90:	0001883a 	nop
			}
		}


		flags = OSFlagAccept(sim_state, sim_running_state, OS_FLAG_WAIT_SET_ALL, &err);
     d94:	d0a7d617 	ldw	r2,-24744(gp)
     d98:	e0fffc04 	addi	r3,fp,-16
     d9c:	180f883a 	mov	r7,r3
     da0:	01800084 	movi	r6,2
     da4:	01400084 	movi	r5,2
     da8:	1009883a 	mov	r4,r2
     dac:	000f08c0 	call	f08c <OSFlagAccept>
     db0:	e0bff90d 	sth	r2,-28(fp)
		if (flags > 0)
     db4:	e0bff90b 	ldhu	r2,-28(fp)
     db8:	10006a26 	beq	r2,zero,f64 <display_task+0x238>
		{
			switch (err) {
     dbc:	e0bffc03 	ldbu	r2,-16(fp)
     dc0:	10803fcc 	andi	r2,r2,255
     dc4:	1000671e 	bne	r2,zero,f64 <display_task+0x238>
			case OS_NO_ERR:

				VGA_text(0, 1,  "                           Simulation Running                              ");
     dc8:	018000b4 	movhi	r6,2
     dcc:	31a94804 	addi	r6,r6,-23264
     dd0:	01400044 	movi	r5,1
     dd4:	0009883a 	mov	r4,zero
     dd8:	00019bc0 	call	19bc <VGA_text>
				VGA_text(0, 59, "                                                               Pause: Key1 ");
     ddc:	018000b4 	movhi	r6,2
     de0:	31a95b04 	addi	r6,r6,-23188
     de4:	01400ec4 	movi	r5,59
     de8:	0009883a 	mov	r4,zero
     dec:	00019bc0 	call	19bc <VGA_text>
				VGA_text(0, 58, "                                             Generate Random Flights: Key2 ");
     df0:	018000b4 	movhi	r6,2
     df4:	31a96e04 	addi	r6,r6,-23112
     df8:	01400e84 	movi	r5,58
     dfc:	0009883a 	mov	r4,zero
     e00:	00019bc0 	call	19bc <VGA_text>
				VGA_text(0, 4,  " Outbound Flights             Inbound Flights               Runway Status  ");
     e04:	018000b4 	movhi	r6,2
     e08:	31a98104 	addi	r6,r6,-23036
     e0c:	01400104 	movi	r5,4
     e10:	0009883a 	mov	r4,zero
     e14:	00019bc0 	call	19bc <VGA_text>


				err = OSSemQuery(runway_sem, &sem_data);
     e18:	d0a7d717 	ldw	r2,-24740(gp)
     e1c:	e0fffc84 	addi	r3,fp,-14
     e20:	180b883a 	mov	r5,r3
     e24:	1009883a 	mov	r4,r2
     e28:	00133100 	call	13310 <OSSemQuery>
     e2c:	e0bffc05 	stb	r2,-16(fp)
				if (err == OS_NO_ERR)
     e30:	e0bffc03 	ldbu	r2,-16(fp)
     e34:	10803fcc 	andi	r2,r2,255
     e38:	10000e1e 	bne	r2,zero,e74 <display_task+0x148>
				{
					if (sem_data.OSCnt != 0x00)
     e3c:	e0bffc8b 	ldhu	r2,-14(fp)
     e40:	10bfffcc 	andi	r2,r2,65535
     e44:	10000626 	beq	r2,zero,e60 <display_task+0x134>
					{
						VGA_text(RUNWAY_COL, 6, "AVAILABLE     ");
     e48:	018000b4 	movhi	r6,2
     e4c:	31a99404 	addi	r6,r6,-22960
     e50:	01400184 	movi	r5,6
     e54:	01000f04 	movi	r4,60
     e58:	00019bc0 	call	19bc <VGA_text>
     e5c:	00000506 	br	e74 <display_task+0x148>
					}
					else
					{
						VGA_text(RUNWAY_COL, 6, "OCCUPIED     ");
     e60:	018000b4 	movhi	r6,2
     e64:	31a99804 	addi	r6,r6,-22944
     e68:	01400184 	movi	r5,6
     e6c:	01000f04 	movi	r4,60
     e70:	00019bc0 	call	19bc <VGA_text>
					}
				}



				for (int i = 0; i < outboundCount; i++)
     e74:	e03ff715 	stw	zero,-36(fp)
     e78:	00001406 	br	ecc <display_task+0x1a0>
				{
					outbound_msgs = (Flight *)OSQAccept(outbound_dsp_queue, &err);
     e7c:	d0a7d817 	ldw	r2,-24736(gp)
     e80:	e0fffc04 	addi	r3,fp,-16
     e84:	180b883a 	mov	r5,r3
     e88:	1009883a 	mov	r4,r2
     e8c:	00119bc0 	call	119bc <OSQAccept>
     e90:	e0bffa15 	stw	r2,-24(fp)
					if (outbound_msgs != (void *)0)
     e94:	e0bffa17 	ldw	r2,-24(fp)
     e98:	10000926 	beq	r2,zero,ec0 <display_task+0x194>
					{
						//display_data[i] = *outbound_msgs;
						VGA_text(0, 5 + outbound_msgs->outbound_ID, &outbound_msgs->msg[0]);
     e9c:	e0bffa17 	ldw	r2,-24(fp)
     ea0:	10800417 	ldw	r2,16(r2)
     ea4:	10c00144 	addi	r3,r2,5
     ea8:	e0bffa17 	ldw	r2,-24(fp)
     eac:	10800804 	addi	r2,r2,32
     eb0:	100d883a 	mov	r6,r2
     eb4:	180b883a 	mov	r5,r3
     eb8:	0009883a 	mov	r4,zero
     ebc:	00019bc0 	call	19bc <VGA_text>
					}
				}



				for (int i = 0; i < outboundCount; i++)
     ec0:	e0bff717 	ldw	r2,-36(fp)
     ec4:	10800044 	addi	r2,r2,1
     ec8:	e0bff715 	stw	r2,-36(fp)
     ecc:	d0a7d503 	ldbu	r2,-24748(gp)
     ed0:	10803fcc 	andi	r2,r2,255
     ed4:	e0fff717 	ldw	r3,-36(fp)
     ed8:	18bfe816 	blt	r3,r2,e7c <display_task+0x150>
					{
						//display_data[i] = *outbound_msgs;
						VGA_text(0, 5 + outbound_msgs->outbound_ID, &outbound_msgs->msg[0]);
					}
				}
				err = OSQFlush(outbound_dsp_queue);
     edc:	d0a7d817 	ldw	r2,-24736(gp)
     ee0:	1009883a 	mov	r4,r2
     ee4:	0011f280 	call	11f28 <OSQFlush>
     ee8:	e0bffc05 	stb	r2,-16(fp)

				for (int i = 0; i < inboundCount; i++)
     eec:	e03ff815 	stw	zero,-32(fp)
     ef0:	00001406 	br	f44 <display_task+0x218>
				{
					inbound_msgs = (Flight *)OSQAccept(inbound_dsp_queue, &err);
     ef4:	d0a7ce17 	ldw	r2,-24776(gp)
     ef8:	e0fffc04 	addi	r3,fp,-16
     efc:	180b883a 	mov	r5,r3
     f00:	1009883a 	mov	r4,r2
     f04:	00119bc0 	call	119bc <OSQAccept>
     f08:	e0bffb15 	stw	r2,-20(fp)
					if (inbound_msgs != (void *)0)
     f0c:	e0bffb17 	ldw	r2,-20(fp)
     f10:	10000926 	beq	r2,zero,f38 <display_task+0x20c>
					{
						VGA_text(INBOUND_COL, 5 + inbound_msgs->inbound_ID, &inbound_msgs->msg[0]);
     f14:	e0bffb17 	ldw	r2,-20(fp)
     f18:	10800317 	ldw	r2,12(r2)
     f1c:	10c00144 	addi	r3,r2,5
     f20:	e0bffb17 	ldw	r2,-20(fp)
     f24:	10800804 	addi	r2,r2,32
     f28:	100d883a 	mov	r6,r2
     f2c:	180b883a 	mov	r5,r3
     f30:	01000744 	movi	r4,29
     f34:	00019bc0 	call	19bc <VGA_text>
						VGA_text(0, 5 + outbound_msgs->outbound_ID, &outbound_msgs->msg[0]);
					}
				}
				err = OSQFlush(outbound_dsp_queue);

				for (int i = 0; i < inboundCount; i++)
     f38:	e0bff817 	ldw	r2,-32(fp)
     f3c:	10800044 	addi	r2,r2,1
     f40:	e0bff815 	stw	r2,-32(fp)
     f44:	d0a7d303 	ldbu	r2,-24756(gp)
     f48:	10803fcc 	andi	r2,r2,255
     f4c:	e0fff817 	ldw	r3,-32(fp)
     f50:	18bfe816 	blt	r3,r2,ef4 <display_task+0x1c8>
					if (inbound_msgs != (void *)0)
					{
						VGA_text(INBOUND_COL, 5 + inbound_msgs->inbound_ID, &inbound_msgs->msg[0]);
					}
				}
				err = OSQFlush(inbound_dsp_queue);
     f54:	d0a7ce17 	ldw	r2,-24776(gp)
     f58:	1009883a 	mov	r4,r2
     f5c:	0011f280 	call	11f28 <OSQFlush>
     f60:	e0bffc05 	stb	r2,-16(fp)


			}
		}

		flags = OSFlagAccept(sim_state, sim_paused_state, OS_FLAG_WAIT_SET_ALL, &err);
     f64:	d0a7d617 	ldw	r2,-24744(gp)
     f68:	e0fffc04 	addi	r3,fp,-16
     f6c:	180f883a 	mov	r7,r3
     f70:	01800084 	movi	r6,2
     f74:	01400104 	movi	r5,4
     f78:	1009883a 	mov	r4,r2
     f7c:	000f08c0 	call	f08c <OSFlagAccept>
     f80:	e0bff90d 	sth	r2,-28(fp)
		if (flags > 0)
     f84:	e0bff90b 	ldhu	r2,-28(fp)
     f88:	10000f26 	beq	r2,zero,fc8 <display_task+0x29c>
		{
			switch (err) {
     f8c:	e0bffc03 	ldbu	r2,-16(fp)
     f90:	10803fcc 	andi	r2,r2,255
     f94:	10000b1e 	bne	r2,zero,fc4 <display_task+0x298>
			case OS_NO_ERR:
				//"                "                            Simulation Running                               "                                                                    "
				VGA_text(0, 1,     "                             Simulation Paused                              ");
     f98:	018000b4 	movhi	r6,2
     f9c:	31a99c04 	addi	r6,r6,-22928
     fa0:	01400044 	movi	r5,1
     fa4:	0009883a 	mov	r4,zero
     fa8:	00019bc0 	call	19bc <VGA_text>
				//PC_DispStr(1, 1, "                                    Simulation Paused                                  ", DISP_FGND_YELLOW + DISP_BGND_BLUE);
				VGA_text(0, 59,    "                                                              Resume: Key1 ");
     fac:	018000b4 	movhi	r6,2
     fb0:	31a9b004 	addi	r6,r6,-22848
     fb4:	01400ec4 	movi	r5,59
     fb8:	0009883a 	mov	r4,zero
     fbc:	00019bc0 	call	19bc <VGA_text>
				break;
     fc0:	00000106 	br	fc8 <display_task+0x29c>
			case OS_TIMEOUT:
				//PC_DispStr(1, 1, "error: OS_TIMEOUT", DISP_FGND_RED + DISP_BGND_BLACK);
				break;
     fc4:	0001883a 	nop
			}
		}
		OSTimeDly(1);
     fc8:	01000044 	movi	r4,1
     fcc:	0014c8c0 	call	14c8c <OSTimeDly>
	}
     fd0:	003f5c06 	br	d44 <display_task+0x18>

00000fd4 <input_task>:
}

void input_task(void *pdata)
{
     fd4:	deffe404 	addi	sp,sp,-112
     fd8:	dfc01b15 	stw	ra,108(sp)
     fdc:	df001a15 	stw	fp,104(sp)
     fe0:	dc001915 	stw	r16,100(sp)
     fe4:	df001a04 	addi	fp,sp,104
     fe8:	e13ffe15 	stw	r4,-8(fp)
	INT8U  err;
	INT16U value;

	OS_FLAGS flags;

	INT16U counter = 0;
     fec:	e03ff08d 	sth	zero,-62(fp)

	INT8U direction = 0;
     ff0:	e03fe905 	stb	zero,-92(fp)
	INT8U flightCounter = 0;
     ff4:	e03fe945 	stb	zero,-91(fp)
	srand(OSTimeGet());
     ff8:	00150c40 	call	150c4 <OSTimeGet>
     ffc:	1009883a 	mov	r4,r2
    1000:	0001c6c0 	call	1c6c <srand>

	OS_TMR *utilization_timer;

	utilization_timer = OSTmrCreate(20, 0,
    1004:	e0bff004 	addi	r2,fp,-64
    1008:	d8800215 	stw	r2,8(sp)
    100c:	008000b4 	movhi	r2,2
    1010:	10a9c304 	addi	r2,r2,-22772
    1014:	d8800115 	stw	r2,4(sp)
    1018:	e0bff084 	addi	r2,fp,-62
    101c:	d8800015 	stw	r2,0(sp)
    1020:	01c00034 	movhi	r7,0
    1024:	39c63204 	addi	r7,r7,6344
    1028:	01800044 	movi	r6,1
    102c:	000b883a 	mov	r5,zero
    1030:	01000504 	movi	r4,20
    1034:	00151800 	call	15180 <OSTmrCreate>
    1038:	e0bfec15 	stw	r2,-80(fp)
	);

	//pdata = pdata;
	while (1)
	{
		volatile int * KEY_ptr = (int *) 0xFF200050;		// pushbutton KEY address
    103c:	00bfc834 	movhi	r2,65312
    1040:	10801404 	addi	r2,r2,80
    1044:	e0bfed15 	stw	r2,-76(fp)
		int KEY_value;

		KEY_value = *(KEY_ptr); 				// read the pushbutton KEY values
    1048:	e0bfed17 	ldw	r2,-76(fp)
    104c:	10800017 	ldw	r2,0(r2)
    1050:	e0bfee15 	stw	r2,-72(fp)
		//while (*KEY_ptr);							// wait for pushbutton KEY release

		if (KEY_value == 0x1)					// check KEY1
    1054:	e0bfee17 	ldw	r2,-72(fp)
    1058:	10800058 	cmpnei	r2,r2,1
    105c:	1000121e 	bne	r2,zero,10a8 <input_task+0xd4>
		{
			OSFlagPost(sim_state, sim_idle_state, OS_FLAG_CLR, &err);
    1060:	d0a7d617 	ldw	r2,-24744(gp)
    1064:	e0fff004 	addi	r3,fp,-64
    1068:	180f883a 	mov	r7,r3
    106c:	000d883a 	mov	r6,zero
    1070:	01400044 	movi	r5,1
    1074:	1009883a 	mov	r4,r2
    1078:	000ff700 	call	ff70 <OSFlagPost>
			OSFlagPost(sim_state, sim_running_state, OS_FLAG_SET, &err);
    107c:	d0a7d617 	ldw	r2,-24744(gp)
    1080:	e0fff004 	addi	r3,fp,-64
    1084:	180f883a 	mov	r7,r3
    1088:	01800044 	movi	r6,1
    108c:	01400084 	movi	r5,2
    1090:	1009883a 	mov	r4,r2
    1094:	000ff700 	call	ff70 <OSFlagPost>
			OSTmrStart(utilization_timer, &err);
    1098:	e0bff004 	addi	r2,fp,-64
    109c:	100b883a 	mov	r5,r2
    10a0:	e13fec17 	ldw	r4,-80(fp)
    10a4:	00158400 	call	15840 <OSTmrStart>
		}
		if (KEY_value == 0x2)					// check KEY1
    10a8:	e0bfee17 	ldw	r2,-72(fp)
    10ac:	10800098 	cmpnei	r2,r2,2
    10b0:	1000291e 	bne	r2,zero,1158 <input_task+0x184>
		{
			flags = OSFlagQuery(sim_state, &err);
    10b4:	d0a7d617 	ldw	r2,-24744(gp)
    10b8:	e0fff004 	addi	r3,fp,-64
    10bc:	180b883a 	mov	r5,r3
    10c0:	1009883a 	mov	r4,r2
    10c4:	00103040 	call	10304 <OSFlagQuery>
    10c8:	e0bfef0d 	sth	r2,-68(fp)
			if (flags == sim_running_state)
    10cc:	e0bfef0b 	ldhu	r2,-68(fp)
    10d0:	10800098 	cmpnei	r2,r2,2
    10d4:	10000f1e 	bne	r2,zero,1114 <input_task+0x140>
			{
				OSFlagPost(sim_state, sim_running_state, OS_FLAG_CLR, &err);
    10d8:	d0a7d617 	ldw	r2,-24744(gp)
    10dc:	e0fff004 	addi	r3,fp,-64
    10e0:	180f883a 	mov	r7,r3
    10e4:	000d883a 	mov	r6,zero
    10e8:	01400084 	movi	r5,2
    10ec:	1009883a 	mov	r4,r2
    10f0:	000ff700 	call	ff70 <OSFlagPost>
				OSFlagPost(sim_state, sim_paused_state, OS_FLAG_SET, &err);
    10f4:	d0a7d617 	ldw	r2,-24744(gp)
    10f8:	e0fff004 	addi	r3,fp,-64
    10fc:	180f883a 	mov	r7,r3
    1100:	01800044 	movi	r6,1
    1104:	01400104 	movi	r5,4
    1108:	1009883a 	mov	r4,r2
    110c:	000ff700 	call	ff70 <OSFlagPost>
    1110:	00001106 	br	1158 <input_task+0x184>
			}
			else if (flags == sim_paused_state)
    1114:	e0bfef0b 	ldhu	r2,-68(fp)
    1118:	10800118 	cmpnei	r2,r2,4
    111c:	10000e1e 	bne	r2,zero,1158 <input_task+0x184>
			{
				OSFlagPost(sim_state, sim_paused_state, OS_FLAG_CLR, &err);
    1120:	d0a7d617 	ldw	r2,-24744(gp)
    1124:	e0fff004 	addi	r3,fp,-64
    1128:	180f883a 	mov	r7,r3
    112c:	000d883a 	mov	r6,zero
    1130:	01400104 	movi	r5,4
    1134:	1009883a 	mov	r4,r2
    1138:	000ff700 	call	ff70 <OSFlagPost>
				OSFlagPost(sim_state, sim_running_state, OS_FLAG_SET, &err);
    113c:	d0a7d617 	ldw	r2,-24744(gp)
    1140:	e0fff004 	addi	r3,fp,-64
    1144:	180f883a 	mov	r7,r3
    1148:	01800044 	movi	r6,1
    114c:	01400084 	movi	r5,2
    1150:	1009883a 	mov	r4,r2
    1154:	000ff700 	call	ff70 <OSFlagPost>
			}
			//VGA_clear_character();
		}
		if (KEY_value == 0x4)				// check KEY2
    1158:	e0bfee17 	ldw	r2,-72(fp)
    115c:	10800118 	cmpnei	r2,r2,4
    1160:	1001c91e 	bne	r2,zero,1888 <input_task+0x8b4>
		{
			flags = OSFlagAccept(sim_state, sim_running_state, OS_FLAG_WAIT_SET_ALL, &err);
    1164:	d0a7d617 	ldw	r2,-24744(gp)
    1168:	e0fff004 	addi	r3,fp,-64
    116c:	180f883a 	mov	r7,r3
    1170:	01800084 	movi	r6,2
    1174:	01400084 	movi	r5,2
    1178:	1009883a 	mov	r4,r2
    117c:	000f08c0 	call	f08c <OSFlagAccept>
    1180:	e0bfef0d 	sth	r2,-68(fp)
			if (flags > 0)
    1184:	e0bfef0b 	ldhu	r2,-68(fp)
    1188:	1000ed26 	beq	r2,zero,1540 <input_task+0x56c>
			{
				counter++;
    118c:	e0bff08b 	ldhu	r2,-62(fp)
    1190:	10800044 	addi	r2,r2,1
    1194:	e0bff08d 	sth	r2,-62(fp)
				//char s[20];
				//sprintf(s, "out: %d in: %d total: %d limit %d", outboundCount, inboundCount, outboundCount + inboundCount, FLIGHT_LIMIT);
				//VGA_text(30, 15, s);
				if ((outboundCount + inboundCount) != FLIGHT_LIMIT) // cant handle more than a certain number of flights
    1198:	d0a7d503 	ldbu	r2,-24748(gp)
    119c:	10c03fcc 	andi	r3,r2,255
    11a0:	d0a7d303 	ldbu	r2,-24756(gp)
    11a4:	10803fcc 	andi	r2,r2,255
    11a8:	1885883a 	add	r2,r3,r2
    11ac:	10800820 	cmpeqi	r2,r2,32
    11b0:	1000e11e 	bne	r2,zero,1538 <input_task+0x564>
				{
					flightCounter = outboundCount + inboundCount; // total nubmer of flights currently active
    11b4:	d0e7d503 	ldbu	r3,-24748(gp)
    11b8:	d0a7d303 	ldbu	r2,-24756(gp)
    11bc:	1885883a 	add	r2,r3,r2
    11c0:	e0bfe945 	stb	r2,-91(fp)
					direction = rand() % 2;
    11c4:	0001c840 	call	1c84 <rand>
    11c8:	1007883a 	mov	r3,r2
    11cc:	00a00034 	movhi	r2,32768
    11d0:	10800044 	addi	r2,r2,1
    11d4:	1884703a 	and	r2,r3,r2
    11d8:	1000040e 	bge	r2,zero,11ec <input_task+0x218>
    11dc:	10bfffc4 	addi	r2,r2,-1
    11e0:	00ffff84 	movi	r3,-2
    11e4:	10c4b03a 	or	r2,r2,r3
    11e8:	10800044 	addi	r2,r2,1
    11ec:	e0bfe905 	stb	r2,-92(fp)
					if (direction == 0)
    11f0:	e0bfe903 	ldbu	r2,-92(fp)
    11f4:	1000d21e 	bne	r2,zero,1540 <input_task+0x56c>
					{
						if (outboundCount != (FLIGHT_LIMIT / 2))
    11f8:	d0a7d503 	ldbu	r2,-24748(gp)
    11fc:	10803fcc 	andi	r2,r2,255
    1200:	10800420 	cmpeqi	r2,r2,16
    1204:	1000ce1e 	bne	r2,zero,1540 <input_task+0x56c>
						{
							value = OSSemAccept(expired_sem);         /* Check resource availability */
    1208:	d0a7d017 	ldw	r2,-24768(gp)
    120c:	1009883a 	mov	r4,r2
    1210:	0012ac00 	call	12ac0 <OSSemAccept>
    1214:	e0bfef8d 	sth	r2,-66(fp)
							if (value > 0)
    1218:	e0bfef8b 	ldhu	r2,-66(fp)
    121c:	10000426 	beq	r2,zero,1230 <input_task+0x25c>
							{
								OSSemPost(expired_ack_sem);
    1220:	d0a7d417 	ldw	r2,-24752(gp)
    1224:	1009883a 	mov	r4,r2
    1228:	00132000 	call	13200 <OSSemPost>
    122c:	0000c406 	br	1540 <input_task+0x56c>
							}
							else
							{
								// if no IDS/priorities are available make a new outbound flight

								++outboundCount;
    1230:	d0a7d503 	ldbu	r2,-24748(gp)
    1234:	10800044 	addi	r2,r2,1
    1238:	d0a7d505 	stb	r2,-24748(gp)
								flight_data[flightCounter].ID = totalFlights;
    123c:	e13fe943 	ldbu	r4,-91(fp)
    1240:	d0a7cd03 	ldbu	r2,-24780(gp)
    1244:	10c03fcc 	andi	r3,r2,255
    1248:	008000f4 	movhi	r2,3
    124c:	1080d404 	addi	r2,r2,848
    1250:	21000d24 	muli	r4,r4,52
    1254:	1105883a 	add	r2,r2,r4
    1258:	10c00015 	stw	r3,0(r2)
								flight_data[flightCounter].ETA_start = rand() % MAX_ETA + MIN_ETA;
    125c:	e43fe943 	ldbu	r16,-91(fp)
    1260:	0001c840 	call	1c84 <rand>
    1264:	00c00c84 	movi	r3,50
    1268:	10c7283a 	div	r3,r2,r3
    126c:	18c00ca4 	muli	r3,r3,50
    1270:	10c5c83a 	sub	r2,r2,r3
    1274:	10c00284 	addi	r3,r2,10
    1278:	008000f4 	movhi	r2,3
    127c:	1080d404 	addi	r2,r2,848
    1280:	81000d24 	muli	r4,r16,52
    1284:	1105883a 	add	r2,r2,r4
    1288:	10800504 	addi	r2,r2,20
    128c:	10c00015 	stw	r3,0(r2)
								flight_data[flightCounter].direction = direction;
    1290:	e13fe943 	ldbu	r4,-91(fp)
    1294:	e0ffe903 	ldbu	r3,-92(fp)
    1298:	008000f4 	movhi	r2,3
    129c:	1080d404 	addi	r2,r2,848
    12a0:	21000d24 	muli	r4,r4,52
    12a4:	1105883a 	add	r2,r2,r4
    12a8:	10800204 	addi	r2,r2,8
    12ac:	10c00015 	stw	r3,0(r2)
								Flight low_eta = flight_data[flightCounter];
    12b0:	e0ffe943 	ldbu	r3,-91(fp)
    12b4:	008000f4 	movhi	r2,3
    12b8:	1080d404 	addi	r2,r2,848
    12bc:	18c00d24 	muli	r3,r3,52
    12c0:	10c5883a 	add	r2,r2,r3
    12c4:	10c00017 	ldw	r3,0(r2)
    12c8:	e0fff115 	stw	r3,-60(fp)
    12cc:	10c00117 	ldw	r3,4(r2)
    12d0:	e0fff215 	stw	r3,-56(fp)
    12d4:	10c00217 	ldw	r3,8(r2)
    12d8:	e0fff315 	stw	r3,-52(fp)
    12dc:	10c00317 	ldw	r3,12(r2)
    12e0:	e0fff415 	stw	r3,-48(fp)
    12e4:	10c00417 	ldw	r3,16(r2)
    12e8:	e0fff515 	stw	r3,-44(fp)
    12ec:	10c00517 	ldw	r3,20(r2)
    12f0:	e0fff615 	stw	r3,-40(fp)
    12f4:	10c00617 	ldw	r3,24(r2)
    12f8:	e0fff715 	stw	r3,-36(fp)
    12fc:	10c00717 	ldw	r3,28(r2)
    1300:	e0fff815 	stw	r3,-32(fp)
    1304:	10c00817 	ldw	r3,32(r2)
    1308:	e0fff915 	stw	r3,-28(fp)
    130c:	10c00917 	ldw	r3,36(r2)
    1310:	e0fffa15 	stw	r3,-24(fp)
    1314:	10c00a17 	ldw	r3,40(r2)
    1318:	e0fffb15 	stw	r3,-20(fp)
    131c:	10c00b17 	ldw	r3,44(r2)
    1320:	e0fffc15 	stw	r3,-16(fp)
    1324:	10800c17 	ldw	r2,48(r2)
    1328:	e0bffd15 	stw	r2,-12(fp)
								for (int i = 0; i < flightCounter; i++)
    132c:	e03fea15 	stw	zero,-88(fp)
    1330:	00002b06 	br	13e0 <input_task+0x40c>
								{
									if (flight_data[i].ETA_start < low_eta.ETA_start)
    1334:	008000f4 	movhi	r2,3
    1338:	1080d404 	addi	r2,r2,848
    133c:	e0ffea17 	ldw	r3,-88(fp)
    1340:	18c00d24 	muli	r3,r3,52
    1344:	10c5883a 	add	r2,r2,r3
    1348:	10800504 	addi	r2,r2,20
    134c:	10c00017 	ldw	r3,0(r2)
    1350:	e0bff617 	ldw	r2,-40(fp)
    1354:	18801f0e 	bge	r3,r2,13d4 <input_task+0x400>
									{
										low_eta = flight_data[i];
    1358:	008000f4 	movhi	r2,3
    135c:	1080d404 	addi	r2,r2,848
    1360:	e0ffea17 	ldw	r3,-88(fp)
    1364:	18c00d24 	muli	r3,r3,52
    1368:	10c5883a 	add	r2,r2,r3
    136c:	10c00017 	ldw	r3,0(r2)
    1370:	e0fff115 	stw	r3,-60(fp)
    1374:	10c00117 	ldw	r3,4(r2)
    1378:	e0fff215 	stw	r3,-56(fp)
    137c:	10c00217 	ldw	r3,8(r2)
    1380:	e0fff315 	stw	r3,-52(fp)
    1384:	10c00317 	ldw	r3,12(r2)
    1388:	e0fff415 	stw	r3,-48(fp)
    138c:	10c00417 	ldw	r3,16(r2)
    1390:	e0fff515 	stw	r3,-44(fp)
    1394:	10c00517 	ldw	r3,20(r2)
    1398:	e0fff615 	stw	r3,-40(fp)
    139c:	10c00617 	ldw	r3,24(r2)
    13a0:	e0fff715 	stw	r3,-36(fp)
    13a4:	10c00717 	ldw	r3,28(r2)
    13a8:	e0fff815 	stw	r3,-32(fp)
    13ac:	10c00817 	ldw	r3,32(r2)
    13b0:	e0fff915 	stw	r3,-28(fp)
    13b4:	10c00917 	ldw	r3,36(r2)
    13b8:	e0fffa15 	stw	r3,-24(fp)
    13bc:	10c00a17 	ldw	r3,40(r2)
    13c0:	e0fffb15 	stw	r3,-20(fp)
    13c4:	10c00b17 	ldw	r3,44(r2)
    13c8:	e0fffc15 	stw	r3,-16(fp)
    13cc:	10800c17 	ldw	r2,48(r2)
    13d0:	e0bffd15 	stw	r2,-12(fp)
								++outboundCount;
								flight_data[flightCounter].ID = totalFlights;
								flight_data[flightCounter].ETA_start = rand() % MAX_ETA + MIN_ETA;
								flight_data[flightCounter].direction = direction;
								Flight low_eta = flight_data[flightCounter];
								for (int i = 0; i < flightCounter; i++)
    13d4:	e0bfea17 	ldw	r2,-88(fp)
    13d8:	10800044 	addi	r2,r2,1
    13dc:	e0bfea15 	stw	r2,-88(fp)
    13e0:	e0bfe943 	ldbu	r2,-91(fp)
    13e4:	e0ffea17 	ldw	r3,-88(fp)
    13e8:	18bfd216 	blt	r3,r2,1334 <input_task+0x360>
									if (flight_data[i].ETA_start < low_eta.ETA_start)
									{
										low_eta = flight_data[i];
									}
								}
								if (flight_data[flightCounter].ETA_start < low_eta.ETA_start)
    13ec:	e0ffe943 	ldbu	r3,-91(fp)
    13f0:	008000f4 	movhi	r2,3
    13f4:	1080d404 	addi	r2,r2,848
    13f8:	18c00d24 	muli	r3,r3,52
    13fc:	10c5883a 	add	r2,r2,r3
    1400:	10800504 	addi	r2,r2,20
    1404:	10c00017 	ldw	r3,0(r2)
    1408:	e0bff617 	ldw	r2,-40(fp)
    140c:	18800a0e 	bge	r3,r2,1438 <input_task+0x464>
								{
									flight_data[flightCounter].prio = low_eta.prio - 1; // task ID
    1410:	e13fe943 	ldbu	r4,-91(fp)
    1414:	e0bff217 	ldw	r2,-56(fp)
    1418:	10ffffc4 	addi	r3,r2,-1
    141c:	008000f4 	movhi	r2,3
    1420:	1080d404 	addi	r2,r2,848
    1424:	21000d24 	muli	r4,r4,52
    1428:	1105883a 	add	r2,r2,r4
    142c:	10800104 	addi	r2,r2,4
    1430:	10c00015 	stw	r3,0(r2)
    1434:	00000a06 	br	1460 <input_task+0x48c>
								}
								else
								{
									flight_data[flightCounter].prio = FLIGHT_PRIO - flightCounter;
    1438:	e13fe943 	ldbu	r4,-91(fp)
    143c:	e0bfe943 	ldbu	r2,-91(fp)
    1440:	00c00904 	movi	r3,36
    1444:	1887c83a 	sub	r3,r3,r2
    1448:	008000f4 	movhi	r2,3
    144c:	1080d404 	addi	r2,r2,848
    1450:	21000d24 	muli	r4,r4,52
    1454:	1105883a 	add	r2,r2,r4
    1458:	10800104 	addi	r2,r2,4
    145c:	10c00015 	stw	r3,0(r2)
								}
								flight_data[flightCounter].clear_start = 10;
    1460:	e0ffe943 	ldbu	r3,-91(fp)
    1464:	008000f4 	movhi	r2,3
    1468:	1080d404 	addi	r2,r2,848
    146c:	18c00d24 	muli	r3,r3,52
    1470:	10c5883a 	add	r2,r2,r3
    1474:	10800604 	addi	r2,r2,24
    1478:	00c00284 	movi	r3,10
    147c:	10c00015 	stw	r3,0(r2)
								flight_data[flightCounter].free_start = 10;
    1480:	e0ffe943 	ldbu	r3,-91(fp)
    1484:	008000f4 	movhi	r2,3
    1488:	1080d404 	addi	r2,r2,848
    148c:	18c00d24 	muli	r3,r3,52
    1490:	10c5883a 	add	r2,r2,r3
    1494:	10800704 	addi	r2,r2,28
    1498:	00c00284 	movi	r3,10
    149c:	10c00015 	stw	r3,0(r2)

								flight_data[flightCounter].outbound_ID = outboundCount; //display row
    14a0:	e13fe943 	ldbu	r4,-91(fp)
    14a4:	d0a7d503 	ldbu	r2,-24748(gp)
    14a8:	10c03fcc 	andi	r3,r2,255
    14ac:	008000f4 	movhi	r2,3
    14b0:	1080d404 	addi	r2,r2,848
    14b4:	21000d24 	muli	r4,r4,52
    14b8:	1105883a 	add	r2,r2,r4
    14bc:	10800404 	addi	r2,r2,16
    14c0:	10c00015 	stw	r3,0(r2)
								OSTaskCreate(flight_task, (void *)&flight_data[flightCounter], &flight_stack[flightCounter][TASK_STK_SIZE - 1], (INT8U)(flight_data[flightCounter].prio));
    14c4:	e0bfe943 	ldbu	r2,-91(fp)
    14c8:	10c00d24 	muli	r3,r2,52
    14cc:	008000f4 	movhi	r2,3
    14d0:	1080d404 	addi	r2,r2,848
    14d4:	1889883a 	add	r4,r3,r2
    14d8:	e0bfe943 	ldbu	r2,-91(fp)
    14dc:	100492fa 	slli	r2,r2,11
    14e0:	10c1ff04 	addi	r3,r2,2044
    14e4:	008000b4 	movhi	r2,2
    14e8:	10bc5404 	addi	r2,r2,-3760
    14ec:	188b883a 	add	r5,r3,r2
    14f0:	e0ffe943 	ldbu	r3,-91(fp)
    14f4:	008000f4 	movhi	r2,3
    14f8:	1080d404 	addi	r2,r2,848
    14fc:	18c00d24 	muli	r3,r3,52
    1500:	10c5883a 	add	r2,r2,r3
    1504:	10800104 	addi	r2,r2,4
    1508:	10800017 	ldw	r2,0(r2)
    150c:	10803fcc 	andi	r2,r2,255
    1510:	100f883a 	mov	r7,r2
    1514:	280d883a 	mov	r6,r5
    1518:	200b883a 	mov	r5,r4
    151c:	01000034 	movhi	r4,0
    1520:	2100f304 	addi	r4,r4,972
    1524:	0013a100 	call	13a10 <OSTaskCreate>

								++totalFlights; // total number of flights (since this also gives the task its priority start at 0
    1528:	d0a7cd03 	ldbu	r2,-24780(gp)
    152c:	10800044 	addi	r2,r2,1
    1530:	d0a7cd05 	stb	r2,-24780(gp)
    1534:	00000206 	br	1540 <input_task+0x56c>
					}
				}
				else
				{
					// outbounds full try to make inbound
					direction = 1;
    1538:	00800044 	movi	r2,1
    153c:	e0bfe905 	stb	r2,-92(fp)
				}
			}

			if (direction == 1)
    1540:	e0bfe903 	ldbu	r2,-92(fp)
    1544:	10800058 	cmpnei	r2,r2,1
    1548:	1000cf1e 	bne	r2,zero,1888 <input_task+0x8b4>
			{
				if (inboundCount != (FLIGHT_LIMIT / 2))
    154c:	d0a7d303 	ldbu	r2,-24756(gp)
    1550:	10803fcc 	andi	r2,r2,255
    1554:	10800420 	cmpeqi	r2,r2,16
    1558:	1000cb1e 	bne	r2,zero,1888 <input_task+0x8b4>
				{

					value = OSSemAccept(expired_sem);         /* Check resource availability */
    155c:	d0a7d017 	ldw	r2,-24768(gp)
    1560:	1009883a 	mov	r4,r2
    1564:	0012ac00 	call	12ac0 <OSSemAccept>
    1568:	e0bfef8d 	sth	r2,-66(fp)
					if (value > 0)
    156c:	e0bfef8b 	ldhu	r2,-66(fp)
    1570:	10000426 	beq	r2,zero,1584 <input_task+0x5b0>
					{
						OSSemPost(expired_ack_sem);
    1574:	d0a7d417 	ldw	r2,-24752(gp)
    1578:	1009883a 	mov	r4,r2
    157c:	00132000 	call	13200 <OSSemPost>
    1580:	0000c106 	br	1888 <input_task+0x8b4>
					}
					else
					{
						// make inbound flight
						// if no IDS/priorities are available make a new outbound flight
						++inboundCount;
    1584:	d0a7d303 	ldbu	r2,-24756(gp)
    1588:	10800044 	addi	r2,r2,1
    158c:	d0a7d305 	stb	r2,-24756(gp)
						flight_data[flightCounter].ID = totalFlights;
    1590:	e13fe943 	ldbu	r4,-91(fp)
    1594:	d0a7cd03 	ldbu	r2,-24780(gp)
    1598:	10c03fcc 	andi	r3,r2,255
    159c:	008000f4 	movhi	r2,3
    15a0:	1080d404 	addi	r2,r2,848
    15a4:	21000d24 	muli	r4,r4,52
    15a8:	1105883a 	add	r2,r2,r4
    15ac:	10c00015 	stw	r3,0(r2)
						flight_data[flightCounter].ETA_start = rand() % MAX_ETA + MIN_ETA;
    15b0:	e43fe943 	ldbu	r16,-91(fp)
    15b4:	0001c840 	call	1c84 <rand>
    15b8:	00c00c84 	movi	r3,50
    15bc:	10c7283a 	div	r3,r2,r3
    15c0:	18c00ca4 	muli	r3,r3,50
    15c4:	10c5c83a 	sub	r2,r2,r3
    15c8:	10c00284 	addi	r3,r2,10
    15cc:	008000f4 	movhi	r2,3
    15d0:	1080d404 	addi	r2,r2,848
    15d4:	81000d24 	muli	r4,r16,52
    15d8:	1105883a 	add	r2,r2,r4
    15dc:	10800504 	addi	r2,r2,20
    15e0:	10c00015 	stw	r3,0(r2)
						flight_data[flightCounter].direction = direction;
    15e4:	e13fe943 	ldbu	r4,-91(fp)
    15e8:	e0ffe903 	ldbu	r3,-92(fp)
    15ec:	008000f4 	movhi	r2,3
    15f0:	1080d404 	addi	r2,r2,848
    15f4:	21000d24 	muli	r4,r4,52
    15f8:	1105883a 	add	r2,r2,r4
    15fc:	10800204 	addi	r2,r2,8
    1600:	10c00015 	stw	r3,0(r2)

						Flight low_eta = flight_data[flightCounter];
    1604:	e0ffe943 	ldbu	r3,-91(fp)
    1608:	008000f4 	movhi	r2,3
    160c:	1080d404 	addi	r2,r2,848
    1610:	18c00d24 	muli	r3,r3,52
    1614:	10c5883a 	add	r2,r2,r3
    1618:	10c00017 	ldw	r3,0(r2)
    161c:	e0fff115 	stw	r3,-60(fp)
    1620:	10c00117 	ldw	r3,4(r2)
    1624:	e0fff215 	stw	r3,-56(fp)
    1628:	10c00217 	ldw	r3,8(r2)
    162c:	e0fff315 	stw	r3,-52(fp)
    1630:	10c00317 	ldw	r3,12(r2)
    1634:	e0fff415 	stw	r3,-48(fp)
    1638:	10c00417 	ldw	r3,16(r2)
    163c:	e0fff515 	stw	r3,-44(fp)
    1640:	10c00517 	ldw	r3,20(r2)
    1644:	e0fff615 	stw	r3,-40(fp)
    1648:	10c00617 	ldw	r3,24(r2)
    164c:	e0fff715 	stw	r3,-36(fp)
    1650:	10c00717 	ldw	r3,28(r2)
    1654:	e0fff815 	stw	r3,-32(fp)
    1658:	10c00817 	ldw	r3,32(r2)
    165c:	e0fff915 	stw	r3,-28(fp)
    1660:	10c00917 	ldw	r3,36(r2)
    1664:	e0fffa15 	stw	r3,-24(fp)
    1668:	10c00a17 	ldw	r3,40(r2)
    166c:	e0fffb15 	stw	r3,-20(fp)
    1670:	10c00b17 	ldw	r3,44(r2)
    1674:	e0fffc15 	stw	r3,-16(fp)
    1678:	10800c17 	ldw	r2,48(r2)
    167c:	e0bffd15 	stw	r2,-12(fp)
						for (int i = 0; i < flightCounter; i++)
    1680:	e03feb15 	stw	zero,-84(fp)
    1684:	00002b06 	br	1734 <input_task+0x760>
						{
							if (flight_data[i].ETA_start < low_eta.ETA_start)
    1688:	008000f4 	movhi	r2,3
    168c:	1080d404 	addi	r2,r2,848
    1690:	e0ffeb17 	ldw	r3,-84(fp)
    1694:	18c00d24 	muli	r3,r3,52
    1698:	10c5883a 	add	r2,r2,r3
    169c:	10800504 	addi	r2,r2,20
    16a0:	10c00017 	ldw	r3,0(r2)
    16a4:	e0bff617 	ldw	r2,-40(fp)
    16a8:	18801f0e 	bge	r3,r2,1728 <input_task+0x754>
							{
								low_eta = flight_data[i];
    16ac:	008000f4 	movhi	r2,3
    16b0:	1080d404 	addi	r2,r2,848
    16b4:	e0ffeb17 	ldw	r3,-84(fp)
    16b8:	18c00d24 	muli	r3,r3,52
    16bc:	10c5883a 	add	r2,r2,r3
    16c0:	10c00017 	ldw	r3,0(r2)
    16c4:	e0fff115 	stw	r3,-60(fp)
    16c8:	10c00117 	ldw	r3,4(r2)
    16cc:	e0fff215 	stw	r3,-56(fp)
    16d0:	10c00217 	ldw	r3,8(r2)
    16d4:	e0fff315 	stw	r3,-52(fp)
    16d8:	10c00317 	ldw	r3,12(r2)
    16dc:	e0fff415 	stw	r3,-48(fp)
    16e0:	10c00417 	ldw	r3,16(r2)
    16e4:	e0fff515 	stw	r3,-44(fp)
    16e8:	10c00517 	ldw	r3,20(r2)
    16ec:	e0fff615 	stw	r3,-40(fp)
    16f0:	10c00617 	ldw	r3,24(r2)
    16f4:	e0fff715 	stw	r3,-36(fp)
    16f8:	10c00717 	ldw	r3,28(r2)
    16fc:	e0fff815 	stw	r3,-32(fp)
    1700:	10c00817 	ldw	r3,32(r2)
    1704:	e0fff915 	stw	r3,-28(fp)
    1708:	10c00917 	ldw	r3,36(r2)
    170c:	e0fffa15 	stw	r3,-24(fp)
    1710:	10c00a17 	ldw	r3,40(r2)
    1714:	e0fffb15 	stw	r3,-20(fp)
    1718:	10c00b17 	ldw	r3,44(r2)
    171c:	e0fffc15 	stw	r3,-16(fp)
    1720:	10800c17 	ldw	r2,48(r2)
    1724:	e0bffd15 	stw	r2,-12(fp)
						flight_data[flightCounter].ID = totalFlights;
						flight_data[flightCounter].ETA_start = rand() % MAX_ETA + MIN_ETA;
						flight_data[flightCounter].direction = direction;

						Flight low_eta = flight_data[flightCounter];
						for (int i = 0; i < flightCounter; i++)
    1728:	e0bfeb17 	ldw	r2,-84(fp)
    172c:	10800044 	addi	r2,r2,1
    1730:	e0bfeb15 	stw	r2,-84(fp)
    1734:	e0bfe943 	ldbu	r2,-91(fp)
    1738:	e0ffeb17 	ldw	r3,-84(fp)
    173c:	18bfd216 	blt	r3,r2,1688 <input_task+0x6b4>
							if (flight_data[i].ETA_start < low_eta.ETA_start)
							{
								low_eta = flight_data[i];
							}
						}
						if (flight_data[flightCounter].ETA_start < low_eta.ETA_start)
    1740:	e0ffe943 	ldbu	r3,-91(fp)
    1744:	008000f4 	movhi	r2,3
    1748:	1080d404 	addi	r2,r2,848
    174c:	18c00d24 	muli	r3,r3,52
    1750:	10c5883a 	add	r2,r2,r3
    1754:	10800504 	addi	r2,r2,20
    1758:	10c00017 	ldw	r3,0(r2)
    175c:	e0bff617 	ldw	r2,-40(fp)
    1760:	18800a0e 	bge	r3,r2,178c <input_task+0x7b8>
						{
							flight_data[flightCounter].prio = low_eta.prio - 1; // task ID
    1764:	e13fe943 	ldbu	r4,-91(fp)
    1768:	e0bff217 	ldw	r2,-56(fp)
    176c:	10ffffc4 	addi	r3,r2,-1
    1770:	008000f4 	movhi	r2,3
    1774:	1080d404 	addi	r2,r2,848
    1778:	21000d24 	muli	r4,r4,52
    177c:	1105883a 	add	r2,r2,r4
    1780:	10800104 	addi	r2,r2,4
    1784:	10c00015 	stw	r3,0(r2)
    1788:	00000a06 	br	17b4 <input_task+0x7e0>
						}
						else
						{
							flight_data[flightCounter].prio = FLIGHT_PRIO - flightCounter;
    178c:	e13fe943 	ldbu	r4,-91(fp)
    1790:	e0bfe943 	ldbu	r2,-91(fp)
    1794:	00c00904 	movi	r3,36
    1798:	1887c83a 	sub	r3,r3,r2
    179c:	008000f4 	movhi	r2,3
    17a0:	1080d404 	addi	r2,r2,848
    17a4:	21000d24 	muli	r4,r4,52
    17a8:	1105883a 	add	r2,r2,r4
    17ac:	10800104 	addi	r2,r2,4
    17b0:	10c00015 	stw	r3,0(r2)
						}
						flight_data[flightCounter].clear_start = 10;
    17b4:	e0ffe943 	ldbu	r3,-91(fp)
    17b8:	008000f4 	movhi	r2,3
    17bc:	1080d404 	addi	r2,r2,848
    17c0:	18c00d24 	muli	r3,r3,52
    17c4:	10c5883a 	add	r2,r2,r3
    17c8:	10800604 	addi	r2,r2,24
    17cc:	00c00284 	movi	r3,10
    17d0:	10c00015 	stw	r3,0(r2)
						flight_data[flightCounter].free_start = 10;
    17d4:	e0ffe943 	ldbu	r3,-91(fp)
    17d8:	008000f4 	movhi	r2,3
    17dc:	1080d404 	addi	r2,r2,848
    17e0:	18c00d24 	muli	r3,r3,52
    17e4:	10c5883a 	add	r2,r2,r3
    17e8:	10800704 	addi	r2,r2,28
    17ec:	00c00284 	movi	r3,10
    17f0:	10c00015 	stw	r3,0(r2)

						flight_data[flightCounter].inbound_ID = inboundCount; //display row
    17f4:	e13fe943 	ldbu	r4,-91(fp)
    17f8:	d0a7d303 	ldbu	r2,-24756(gp)
    17fc:	10c03fcc 	andi	r3,r2,255
    1800:	008000f4 	movhi	r2,3
    1804:	1080d404 	addi	r2,r2,848
    1808:	21000d24 	muli	r4,r4,52
    180c:	1105883a 	add	r2,r2,r4
    1810:	10800304 	addi	r2,r2,12
    1814:	10c00015 	stw	r3,0(r2)
						OSTaskCreate(flight_task, (void *)&flight_data[flightCounter], &flight_stack[flightCounter][TASK_STK_SIZE - 1], (INT8U)(flight_data[flightCounter].prio));
    1818:	e0bfe943 	ldbu	r2,-91(fp)
    181c:	10c00d24 	muli	r3,r2,52
    1820:	008000f4 	movhi	r2,3
    1824:	1080d404 	addi	r2,r2,848
    1828:	1889883a 	add	r4,r3,r2
    182c:	e0bfe943 	ldbu	r2,-91(fp)
    1830:	100492fa 	slli	r2,r2,11
    1834:	10c1ff04 	addi	r3,r2,2044
    1838:	008000b4 	movhi	r2,2
    183c:	10bc5404 	addi	r2,r2,-3760
    1840:	188b883a 	add	r5,r3,r2
    1844:	e0ffe943 	ldbu	r3,-91(fp)
    1848:	008000f4 	movhi	r2,3
    184c:	1080d404 	addi	r2,r2,848
    1850:	18c00d24 	muli	r3,r3,52
    1854:	10c5883a 	add	r2,r2,r3
    1858:	10800104 	addi	r2,r2,4
    185c:	10800017 	ldw	r2,0(r2)
    1860:	10803fcc 	andi	r2,r2,255
    1864:	100f883a 	mov	r7,r2
    1868:	280d883a 	mov	r6,r5
    186c:	200b883a 	mov	r5,r4
    1870:	01000034 	movhi	r4,0
    1874:	2100f304 	addi	r4,r4,972
    1878:	0013a100 	call	13a10 <OSTaskCreate>


						++totalFlights; // total number of flights (since this also gives the task its priority start at 0
    187c:	d0a7cd03 	ldbu	r2,-24780(gp)
    1880:	10800044 	addi	r2,r2,1
    1884:	d0a7cd05 	stb	r2,-24780(gp)
					}

				}
			}
		}
		flags = OSFlagAccept(sim_state, sim_running_state, OS_FLAG_WAIT_SET_ALL, &err);
    1888:	d0a7d617 	ldw	r2,-24744(gp)
    188c:	e0fff004 	addi	r3,fp,-64
    1890:	180f883a 	mov	r7,r3
    1894:	01800084 	movi	r6,2
    1898:	01400084 	movi	r5,2
    189c:	1009883a 	mov	r4,r2
    18a0:	000f08c0 	call	f08c <OSFlagAccept>
    18a4:	e0bfef0d 	sth	r2,-68(fp)
		if (flags > 0)
    18a8:	e0bfef0b 	ldhu	r2,-68(fp)
    18ac:	10000326 	beq	r2,zero,18bc <input_task+0x8e8>
		{
			counter++;
    18b0:	e0bff08b 	ldhu	r2,-62(fp)
    18b4:	10800044 	addi	r2,r2,1
    18b8:	e0bff08d 	sth	r2,-62(fp)
		}
		OSTimeDly(1);
    18bc:	01000044 	movi	r4,1
    18c0:	0014c8c0 	call	14c8c <OSTimeDly>
	}
    18c4:	003ddd06 	br	103c <input_task+0x68>

000018c8 <u_callback>:
 *********************************************************************************************************
 *                                                  Callbacks
 *********************************************************************************************************
 */
void u_callback(void *ptmr, void *callback_arg)
{
    18c8:	defffa04 	addi	sp,sp,-24
    18cc:	dfc00515 	stw	ra,20(sp)
    18d0:	df000415 	stw	fp,16(sp)
    18d4:	df000404 	addi	fp,sp,16
    18d8:	e13ffe15 	stw	r4,-8(fp)
    18dc:	e17fff15 	stw	r5,-4(fp)
	INT16U count = 0;
    18e0:	e03ffd0d 	sth	zero,-12(fp)
	count = *((INT16U *)callback_arg);
    18e4:	e0bfff17 	ldw	r2,-4(fp)
    18e8:	1080000b 	ldhu	r2,0(r2)
    18ec:	e0bffd0d 	sth	r2,-12(fp)
	VGA_box(0,0, 319, 239, GRAY);
    18f0:	00800284 	movi	r2,10
    18f4:	d8800015 	stw	r2,0(sp)
    18f8:	01c03bc4 	movi	r7,239
    18fc:	01804fc4 	movi	r6,319
    1900:	000b883a 	mov	r5,zero
    1904:	0009883a 	mov	r4,zero
    1908:	0001a500 	call	1a50 <VGA_box>
	// count = 160 without tasks
	// count = 219 in lowest task
}
    190c:	0001883a 	nop
    1910:	e037883a 	mov	sp,fp
    1914:	dfc00117 	ldw	ra,4(sp)
    1918:	df000017 	ldw	fp,0(sp)
    191c:	dec00204 	addi	sp,sp,8
    1920:	f800283a 	ret

00001924 <clear_bg>:
//*********************************************************************************************************
//*                                                  Functions
//*********************************************************************************************************
//*
void clear_bg()
{
    1924:	defffd04 	addi	sp,sp,-12
    1928:	dfc00215 	stw	ra,8(sp)
    192c:	df000115 	stw	fp,4(sp)
    1930:	df000104 	addi	fp,sp,4
	VGA_box(0,0, 319, 239, GRAY);
    1934:	00800284 	movi	r2,10
    1938:	d8800015 	stw	r2,0(sp)
    193c:	01c03bc4 	movi	r7,239
    1940:	01804fc4 	movi	r6,319
    1944:	000b883a 	mov	r5,zero
    1948:	0009883a 	mov	r4,zero
    194c:	0001a500 	call	1a50 <VGA_box>
	VGA_box(0, 1, 320, 8, BLUE);
    1950:	00802644 	movi	r2,153
    1954:	d8800015 	stw	r2,0(sp)
    1958:	01c00204 	movi	r7,8
    195c:	01805004 	movi	r6,320
    1960:	01400044 	movi	r5,1
    1964:	0009883a 	mov	r4,zero
    1968:	0001a500 	call	1a50 <VGA_box>
	VGA_box(170, 231, 320, 240, BLUE);
    196c:	00802644 	movi	r2,153
    1970:	d8800015 	stw	r2,0(sp)
    1974:	01c03c04 	movi	r7,240
    1978:	01805004 	movi	r6,320
    197c:	014039c4 	movi	r5,231
    1980:	01002a84 	movi	r4,170
    1984:	0001a500 	call	1a50 <VGA_box>
	VGA_box(0, 238, 320, 240, BLUE);
    1988:	00802644 	movi	r2,153
    198c:	d8800015 	stw	r2,0(sp)
    1990:	01c03c04 	movi	r7,240
    1994:	01805004 	movi	r6,320
    1998:	01403b84 	movi	r5,238
    199c:	0009883a 	mov	r4,zero
    19a0:	0001a500 	call	1a50 <VGA_box>
}
    19a4:	0001883a 	nop
    19a8:	e037883a 	mov	sp,fp
    19ac:	dfc00117 	ldw	ra,4(sp)
    19b0:	df000017 	ldw	fp,0(sp)
    19b4:	dec00204 	addi	sp,sp,8
    19b8:	f800283a 	ret

000019bc <VGA_text>:

void VGA_text(int x, int y, char * text_ptr)
{
    19bc:	defffa04 	addi	sp,sp,-24
    19c0:	df000515 	stw	fp,20(sp)
    19c4:	df000504 	addi	fp,sp,20
    19c8:	e13ffd15 	stw	r4,-12(fp)
    19cc:	e17ffe15 	stw	r5,-8(fp)
    19d0:	e1bfff15 	stw	r6,-4(fp)
	int offset;
	volatile char * character_buffer = (char *) 0x09000000;   // VGA character buffer
    19d4:	00824034 	movhi	r2,2304
    19d8:	e0bffc15 	stw	r2,-16(fp)
	/* assume that the text string fits on one line */
	offset = (y << 7) + x;
    19dc:	e0bffe17 	ldw	r2,-8(fp)
    19e0:	100691fa 	slli	r3,r2,7
    19e4:	e0bffd17 	ldw	r2,-12(fp)
    19e8:	1885883a 	add	r2,r3,r2
    19ec:	e0bffb15 	stw	r2,-20(fp)
	while ( *(text_ptr) )
    19f0:	00000c06 	br	1a24 <VGA_text+0x68>
	{
		*(character_buffer + offset) = *(text_ptr);   // write to the character buffer
    19f4:	e0bffb17 	ldw	r2,-20(fp)
    19f8:	e0fffc17 	ldw	r3,-16(fp)
    19fc:	1885883a 	add	r2,r3,r2
    1a00:	e0ffff17 	ldw	r3,-4(fp)
    1a04:	18c00003 	ldbu	r3,0(r3)
    1a08:	10c00005 	stb	r3,0(r2)
		++text_ptr;
    1a0c:	e0bfff17 	ldw	r2,-4(fp)
    1a10:	10800044 	addi	r2,r2,1
    1a14:	e0bfff15 	stw	r2,-4(fp)
		++offset;
    1a18:	e0bffb17 	ldw	r2,-20(fp)
    1a1c:	10800044 	addi	r2,r2,1
    1a20:	e0bffb15 	stw	r2,-20(fp)
{
	int offset;
	volatile char * character_buffer = (char *) 0x09000000;   // VGA character buffer
	/* assume that the text string fits on one line */
	offset = (y << 7) + x;
	while ( *(text_ptr) )
    1a24:	e0bfff17 	ldw	r2,-4(fp)
    1a28:	10800003 	ldbu	r2,0(r2)
    1a2c:	10803fcc 	andi	r2,r2,255
    1a30:	1080201c 	xori	r2,r2,128
    1a34:	10bfe004 	addi	r2,r2,-128
    1a38:	103fee1e 	bne	r2,zero,19f4 <VGA_text+0x38>
	{
		*(character_buffer + offset) = *(text_ptr);   // write to the character buffer
		++text_ptr;
		++offset;
	}
}
    1a3c:	0001883a 	nop
    1a40:	e037883a 	mov	sp,fp
    1a44:	df000017 	ldw	fp,0(sp)
    1a48:	dec00104 	addi	sp,sp,4
    1a4c:	f800283a 	ret

00001a50 <VGA_box>:

void VGA_box(int x1, int y1, int x2, int y2, short pixel_color)
{
    1a50:	defff604 	addi	sp,sp,-40
    1a54:	df000915 	stw	fp,36(sp)
    1a58:	df000904 	addi	fp,sp,36
    1a5c:	e13ffb15 	stw	r4,-20(fp)
    1a60:	e17ffc15 	stw	r5,-16(fp)
    1a64:	e1bffd15 	stw	r6,-12(fp)
    1a68:	e1fffe15 	stw	r7,-8(fp)
    1a6c:	e0800117 	ldw	r2,4(fp)
    1a70:	e0bfff0d 	sth	r2,-4(fp)
	int offset, row, col;
	volatile short * pixel_buffer = (short *) 0x08000000;
    1a74:	00820034 	movhi	r2,2048
    1a78:	e0bff915 	stw	r2,-28(fp)
	// VGA pixel buffer
	/* assume that the box coordinates are valid */
	for (row = y1; row <= y2; row++)
    1a7c:	e0bffc17 	ldw	r2,-16(fp)
    1a80:	e0bff715 	stw	r2,-36(fp)
    1a84:	00001806 	br	1ae8 <VGA_box+0x98>
	{
		col = x1;
    1a88:	e0bffb17 	ldw	r2,-20(fp)
    1a8c:	e0bff815 	stw	r2,-32(fp)
		while (col <= x2)
    1a90:	00000f06 	br	1ad0 <VGA_box+0x80>
		{
			offset = (row << 9) + col;
    1a94:	e0bff717 	ldw	r2,-36(fp)
    1a98:	1006927a 	slli	r3,r2,9
    1a9c:	e0bff817 	ldw	r2,-32(fp)
    1aa0:	1885883a 	add	r2,r3,r2
    1aa4:	e0bffa15 	stw	r2,-24(fp)
			*(pixel_buffer + offset) = pixel_color;
    1aa8:	e0bffa17 	ldw	r2,-24(fp)
    1aac:	1085883a 	add	r2,r2,r2
    1ab0:	1007883a 	mov	r3,r2
    1ab4:	e0bff917 	ldw	r2,-28(fp)
    1ab8:	10c5883a 	add	r2,r2,r3
    1abc:	e0ffff0b 	ldhu	r3,-4(fp)
    1ac0:	10c0000d 	sth	r3,0(r2)
			// compute halfword address, set pixel
			++col;
    1ac4:	e0bff817 	ldw	r2,-32(fp)
    1ac8:	10800044 	addi	r2,r2,1
    1acc:	e0bff815 	stw	r2,-32(fp)
	// VGA pixel buffer
	/* assume that the box coordinates are valid */
	for (row = y1; row <= y2; row++)
	{
		col = x1;
		while (col <= x2)
    1ad0:	e0bff817 	ldw	r2,-32(fp)
    1ad4:	e0fffd17 	ldw	r3,-12(fp)
    1ad8:	18bfee0e 	bge	r3,r2,1a94 <VGA_box+0x44>
{
	int offset, row, col;
	volatile short * pixel_buffer = (short *) 0x08000000;
	// VGA pixel buffer
	/* assume that the box coordinates are valid */
	for (row = y1; row <= y2; row++)
    1adc:	e0bff717 	ldw	r2,-36(fp)
    1ae0:	10800044 	addi	r2,r2,1
    1ae4:	e0bff715 	stw	r2,-36(fp)
    1ae8:	e0bff717 	ldw	r2,-36(fp)
    1aec:	e0fffe17 	ldw	r3,-8(fp)
    1af0:	18bfe50e 	bge	r3,r2,1a88 <VGA_box+0x38>
			*(pixel_buffer + offset) = pixel_color;
			// compute halfword address, set pixel
			++col;
		}
	}
}
    1af4:	0001883a 	nop
    1af8:	e037883a 	mov	sp,fp
    1afc:	df000017 	ldw	fp,0(sp)
    1b00:	dec00104 	addi	sp,sp,4
    1b04:	f800283a 	ret

00001b08 <VGA_pixel>:

void VGA_pixel(int x, int y, short pixel_color)
{
    1b08:	defffa04 	addi	sp,sp,-24
    1b0c:	df000515 	stw	fp,20(sp)
    1b10:	df000504 	addi	fp,sp,20
    1b14:	e13ffd15 	stw	r4,-12(fp)
    1b18:	e17ffe15 	stw	r5,-8(fp)
    1b1c:	3005883a 	mov	r2,r6
    1b20:	e0bfff0d 	sth	r2,-4(fp)
	int offset;
	volatile short * pixel_buffer = (short *) 0x08000000;
    1b24:	00820034 	movhi	r2,2048
    1b28:	e0bffb15 	stw	r2,-20(fp)
	// VGA pixel buffer
	offset = ((y << 9) + x);
    1b2c:	e0bffe17 	ldw	r2,-8(fp)
    1b30:	1006927a 	slli	r3,r2,9
    1b34:	e0bffd17 	ldw	r2,-12(fp)
    1b38:	1885883a 	add	r2,r3,r2
    1b3c:	e0bffc15 	stw	r2,-16(fp)
	*(pixel_buffer + offset) = pixel_color;
    1b40:	e0bffc17 	ldw	r2,-16(fp)
    1b44:	1085883a 	add	r2,r2,r2
    1b48:	1007883a 	mov	r3,r2
    1b4c:	e0bffb17 	ldw	r2,-20(fp)
    1b50:	10c5883a 	add	r2,r2,r3
    1b54:	e0ffff0b 	ldhu	r3,-4(fp)
    1b58:	10c0000d 	sth	r3,0(r2)
}
    1b5c:	0001883a 	nop
    1b60:	e037883a 	mov	sp,fp
    1b64:	df000017 	ldw	fp,0(sp)
    1b68:	dec00104 	addi	sp,sp,4
    1b6c:	f800283a 	ret

00001b70 <VGA_clear>:

void VGA_clear()
{
    1b70:	defffc04 	addi	sp,sp,-16
    1b74:	dfc00315 	stw	ra,12(sp)
    1b78:	df000215 	stw	fp,8(sp)
    1b7c:	df000204 	addi	fp,sp,8
	int x, y;
	for(x = 0; x < 320; x++)
    1b80:	e03ffe15 	stw	zero,-8(fp)
    1b84:	00000f06 	br	1bc4 <VGA_clear+0x54>
	{
		for(y = 0; y < 240; y++)
    1b88:	e03fff15 	stw	zero,-4(fp)
    1b8c:	00000706 	br	1bac <VGA_clear+0x3c>
		{
			VGA_pixel(x, y, 0);
    1b90:	000d883a 	mov	r6,zero
    1b94:	e17fff17 	ldw	r5,-4(fp)
    1b98:	e13ffe17 	ldw	r4,-8(fp)
    1b9c:	0001b080 	call	1b08 <VGA_pixel>
void VGA_clear()
{
	int x, y;
	for(x = 0; x < 320; x++)
	{
		for(y = 0; y < 240; y++)
    1ba0:	e0bfff17 	ldw	r2,-4(fp)
    1ba4:	10800044 	addi	r2,r2,1
    1ba8:	e0bfff15 	stw	r2,-4(fp)
    1bac:	e0bfff17 	ldw	r2,-4(fp)
    1bb0:	10803c10 	cmplti	r2,r2,240
    1bb4:	103ff61e 	bne	r2,zero,1b90 <VGA_clear+0x20>
}

void VGA_clear()
{
	int x, y;
	for(x = 0; x < 320; x++)
    1bb8:	e0bffe17 	ldw	r2,-8(fp)
    1bbc:	10800044 	addi	r2,r2,1
    1bc0:	e0bffe15 	stw	r2,-8(fp)
    1bc4:	e0bffe17 	ldw	r2,-8(fp)
    1bc8:	10805010 	cmplti	r2,r2,320
    1bcc:	103fee1e 	bne	r2,zero,1b88 <VGA_clear+0x18>
		for(y = 0; y < 240; y++)
		{
			VGA_pixel(x, y, 0);
		}
	}
	clear_bg();
    1bd0:	00019240 	call	1924 <clear_bg>
}
    1bd4:	0001883a 	nop
    1bd8:	e037883a 	mov	sp,fp
    1bdc:	dfc00117 	ldw	ra,4(sp)
    1be0:	df000017 	ldw	fp,0(sp)
    1be4:	dec00204 	addi	sp,sp,8
    1be8:	f800283a 	ret

00001bec <VGA_clear_character>:

void VGA_clear_character()
{
    1bec:	defffc04 	addi	sp,sp,-16
    1bf0:	dfc00315 	stw	ra,12(sp)
    1bf4:	df000215 	stw	fp,8(sp)
    1bf8:	df000204 	addi	fp,sp,8
	for(int x = 0; x < 80; x++)
    1bfc:	e03ffe15 	stw	zero,-8(fp)
    1c00:	00001006 	br	1c44 <VGA_clear_character+0x58>
	{
		for(int y = 0; y < 60; y++)
    1c04:	e03fff15 	stw	zero,-4(fp)
    1c08:	00000806 	br	1c2c <VGA_clear_character+0x40>
		{
			VGA_text(x, y, " ");
    1c0c:	018000b4 	movhi	r6,2
    1c10:	31a9c804 	addi	r6,r6,-22752
    1c14:	e17fff17 	ldw	r5,-4(fp)
    1c18:	e13ffe17 	ldw	r4,-8(fp)
    1c1c:	00019bc0 	call	19bc <VGA_text>

void VGA_clear_character()
{
	for(int x = 0; x < 80; x++)
	{
		for(int y = 0; y < 60; y++)
    1c20:	e0bfff17 	ldw	r2,-4(fp)
    1c24:	10800044 	addi	r2,r2,1
    1c28:	e0bfff15 	stw	r2,-4(fp)
    1c2c:	e0bfff17 	ldw	r2,-4(fp)
    1c30:	10800f10 	cmplti	r2,r2,60
    1c34:	103ff51e 	bne	r2,zero,1c0c <VGA_clear_character+0x20>
	clear_bg();
}

void VGA_clear_character()
{
	for(int x = 0; x < 80; x++)
    1c38:	e0bffe17 	ldw	r2,-8(fp)
    1c3c:	10800044 	addi	r2,r2,1
    1c40:	e0bffe15 	stw	r2,-8(fp)
    1c44:	e0bffe17 	ldw	r2,-8(fp)
    1c48:	10801410 	cmplti	r2,r2,80
    1c4c:	103fed1e 	bne	r2,zero,1c04 <VGA_clear_character+0x18>
		for(int y = 0; y < 60; y++)
		{
			VGA_text(x, y, " ");
		}
	}
	clear_bg();
    1c50:	00019240 	call	1924 <clear_bg>
}
    1c54:	0001883a 	nop
    1c58:	e037883a 	mov	sp,fp
    1c5c:	dfc00117 	ldw	ra,4(sp)
    1c60:	df000017 	ldw	fp,0(sp)
    1c64:	dec00204 	addi	sp,sp,8
    1c68:	f800283a 	ret

00001c6c <srand>:
    1c6c:	008000b4 	movhi	r2,2
    1c70:	10b2a204 	addi	r2,r2,-13688
    1c74:	10800017 	ldw	r2,0(r2)
    1c78:	11002915 	stw	r4,164(r2)
    1c7c:	10002a15 	stw	zero,168(r2)
    1c80:	f800283a 	ret

00001c84 <rand>:
    1c84:	008000b4 	movhi	r2,2
    1c88:	10b2a204 	addi	r2,r2,-13688
    1c8c:	11c00017 	ldw	r7,0(r2)
    1c90:	01532574 	movhi	r5,19605
    1c94:	019614b4 	movhi	r6,22610
    1c98:	38c02917 	ldw	r3,164(r7)
    1c9c:	39002a17 	ldw	r4,168(r7)
    1ca0:	295fcb44 	addi	r5,r5,32557
    1ca4:	31bd0b44 	addi	r6,r6,-3027
    1ca8:	1951383a 	mul	r8,r3,r5
    1cac:	2149383a 	mul	r4,r4,r5
    1cb0:	198d383a 	mul	r6,r3,r6
    1cb4:	194a383a 	mulxuu	r5,r3,r5
    1cb8:	40800044 	addi	r2,r8,1
    1cbc:	2187883a 	add	r3,r4,r6
    1cc0:	1949883a 	add	r4,r3,r5
    1cc4:	38802915 	stw	r2,164(r7)
    1cc8:	1207803a 	cmpltu	r3,r2,r8
    1ccc:	00a00034 	movhi	r2,32768
    1cd0:	1907883a 	add	r3,r3,r4
    1cd4:	10bfffc4 	addi	r2,r2,-1
    1cd8:	38c02a15 	stw	r3,168(r7)
    1cdc:	1884703a 	and	r2,r3,r2
    1ce0:	f800283a 	ret

00001ce4 <_sprintf_r>:
    1ce4:	deffe404 	addi	sp,sp,-112
    1ce8:	2807883a 	mov	r3,r5
    1cec:	dfc01a15 	stw	ra,104(sp)
    1cf0:	d9c01b15 	stw	r7,108(sp)
    1cf4:	00a00034 	movhi	r2,32768
    1cf8:	10bfffc4 	addi	r2,r2,-1
    1cfc:	02008204 	movi	r8,520
    1d00:	d8800215 	stw	r2,8(sp)
    1d04:	d8800515 	stw	r2,20(sp)
    1d08:	d9c01b04 	addi	r7,sp,108
    1d0c:	d80b883a 	mov	r5,sp
    1d10:	00bfffc4 	movi	r2,-1
    1d14:	d8c00015 	stw	r3,0(sp)
    1d18:	d8c00415 	stw	r3,16(sp)
    1d1c:	da00030d 	sth	r8,12(sp)
    1d20:	d880038d 	sth	r2,14(sp)
    1d24:	0001da80 	call	1da8 <___svfprintf_internal_r>
    1d28:	d8c00017 	ldw	r3,0(sp)
    1d2c:	18000005 	stb	zero,0(r3)
    1d30:	dfc01a17 	ldw	ra,104(sp)
    1d34:	dec01c04 	addi	sp,sp,112
    1d38:	f800283a 	ret

00001d3c <sprintf>:
    1d3c:	deffe304 	addi	sp,sp,-116
    1d40:	2007883a 	mov	r3,r4
    1d44:	dfc01a15 	stw	ra,104(sp)
    1d48:	d9801b15 	stw	r6,108(sp)
    1d4c:	d9c01c15 	stw	r7,112(sp)
    1d50:	010000b4 	movhi	r4,2
    1d54:	2132a204 	addi	r4,r4,-13688
    1d58:	21000017 	ldw	r4,0(r4)
    1d5c:	00a00034 	movhi	r2,32768
    1d60:	10bfffc4 	addi	r2,r2,-1
    1d64:	280d883a 	mov	r6,r5
    1d68:	02008204 	movi	r8,520
    1d6c:	d8800215 	stw	r2,8(sp)
    1d70:	d8800515 	stw	r2,20(sp)
    1d74:	d9c01b04 	addi	r7,sp,108
    1d78:	d80b883a 	mov	r5,sp
    1d7c:	00bfffc4 	movi	r2,-1
    1d80:	d8c00015 	stw	r3,0(sp)
    1d84:	d8c00415 	stw	r3,16(sp)
    1d88:	da00030d 	sth	r8,12(sp)
    1d8c:	d880038d 	sth	r2,14(sp)
    1d90:	0001da80 	call	1da8 <___svfprintf_internal_r>
    1d94:	d8c00017 	ldw	r3,0(sp)
    1d98:	18000005 	stb	zero,0(r3)
    1d9c:	dfc01a17 	ldw	ra,104(sp)
    1da0:	dec01d04 	addi	sp,sp,116
    1da4:	f800283a 	ret

00001da8 <___svfprintf_internal_r>:
    1da8:	deffb704 	addi	sp,sp,-292
    1dac:	dfc04815 	stw	ra,288(sp)
    1db0:	ddc04615 	stw	r23,280(sp)
    1db4:	d9402c15 	stw	r5,176(sp)
    1db8:	d9003915 	stw	r4,228(sp)
    1dbc:	302f883a 	mov	r23,r6
    1dc0:	d9c02d15 	stw	r7,180(sp)
    1dc4:	df004715 	stw	fp,284(sp)
    1dc8:	dd804515 	stw	r22,276(sp)
    1dcc:	dd404415 	stw	r21,272(sp)
    1dd0:	dd004315 	stw	r20,268(sp)
    1dd4:	dcc04215 	stw	r19,264(sp)
    1dd8:	dc804115 	stw	r18,260(sp)
    1ddc:	dc404015 	stw	r17,256(sp)
    1de0:	dc003f15 	stw	r16,252(sp)
    1de4:	00058b40 	call	58b4 <_localeconv_r>
    1de8:	10800017 	ldw	r2,0(r2)
    1dec:	1009883a 	mov	r4,r2
    1df0:	d8803415 	stw	r2,208(sp)
    1df4:	00074bc0 	call	74bc <strlen>
    1df8:	d8c02c17 	ldw	r3,176(sp)
    1dfc:	d8803815 	stw	r2,224(sp)
    1e00:	1880030b 	ldhu	r2,12(r3)
    1e04:	1080200c 	andi	r2,r2,128
    1e08:	10000226 	beq	r2,zero,1e14 <___svfprintf_internal_r+0x6c>
    1e0c:	18800417 	ldw	r2,16(r3)
    1e10:	10067f26 	beq	r2,zero,3810 <___svfprintf_internal_r+0x1a68>
    1e14:	dcc03917 	ldw	r19,228(sp)
    1e18:	d8c00404 	addi	r3,sp,16
    1e1c:	054000b4 	movhi	r21,2
    1e20:	d9001e04 	addi	r4,sp,120
    1e24:	ad69d984 	addi	r21,r21,-22682
    1e28:	d8c01e15 	stw	r3,120(sp)
    1e2c:	d8002015 	stw	zero,128(sp)
    1e30:	d8001f15 	stw	zero,124(sp)
    1e34:	d8003315 	stw	zero,204(sp)
    1e38:	d8003615 	stw	zero,216(sp)
    1e3c:	d8003715 	stw	zero,220(sp)
    1e40:	1811883a 	mov	r8,r3
    1e44:	d8003a15 	stw	zero,232(sp)
    1e48:	d8003b15 	stw	zero,236(sp)
    1e4c:	d8002f15 	stw	zero,188(sp)
    1e50:	d9002815 	stw	r4,160(sp)
    1e54:	b8800007 	ldb	r2,0(r23)
    1e58:	10026726 	beq	r2,zero,27f8 <___svfprintf_internal_r+0xa50>
    1e5c:	00c00944 	movi	r3,37
    1e60:	b821883a 	mov	r16,r23
    1e64:	10c0021e 	bne	r2,r3,1e70 <___svfprintf_internal_r+0xc8>
    1e68:	00001406 	br	1ebc <___svfprintf_internal_r+0x114>
    1e6c:	10c00326 	beq	r2,r3,1e7c <___svfprintf_internal_r+0xd4>
    1e70:	84000044 	addi	r16,r16,1
    1e74:	80800007 	ldb	r2,0(r16)
    1e78:	103ffc1e 	bne	r2,zero,1e6c <___svfprintf_internal_r+0xc4>
    1e7c:	85e3c83a 	sub	r17,r16,r23
    1e80:	88000e26 	beq	r17,zero,1ebc <___svfprintf_internal_r+0x114>
    1e84:	d8c02017 	ldw	r3,128(sp)
    1e88:	d8801f17 	ldw	r2,124(sp)
    1e8c:	45c00015 	stw	r23,0(r8)
    1e90:	1c47883a 	add	r3,r3,r17
    1e94:	10800044 	addi	r2,r2,1
    1e98:	d8c02015 	stw	r3,128(sp)
    1e9c:	44400115 	stw	r17,4(r8)
    1ea0:	d8801f15 	stw	r2,124(sp)
    1ea4:	00c001c4 	movi	r3,7
    1ea8:	18809716 	blt	r3,r2,2108 <___svfprintf_internal_r+0x360>
    1eac:	42000204 	addi	r8,r8,8
    1eb0:	d9402f17 	ldw	r5,188(sp)
    1eb4:	2c4b883a 	add	r5,r5,r17
    1eb8:	d9402f15 	stw	r5,188(sp)
    1ebc:	80800007 	ldb	r2,0(r16)
    1ec0:	10009826 	beq	r2,zero,2124 <___svfprintf_internal_r+0x37c>
    1ec4:	84400047 	ldb	r17,1(r16)
    1ec8:	00bfffc4 	movi	r2,-1
    1ecc:	85c00044 	addi	r23,r16,1
    1ed0:	d8002785 	stb	zero,158(sp)
    1ed4:	0007883a 	mov	r3,zero
    1ed8:	000f883a 	mov	r7,zero
    1edc:	d8802915 	stw	r2,164(sp)
    1ee0:	d8003115 	stw	zero,196(sp)
    1ee4:	0025883a 	mov	r18,zero
    1ee8:	01401604 	movi	r5,88
    1eec:	01800244 	movi	r6,9
    1ef0:	02800a84 	movi	r10,42
    1ef4:	02401b04 	movi	r9,108
    1ef8:	bdc00044 	addi	r23,r23,1
    1efc:	88bff804 	addi	r2,r17,-32
    1f00:	2882f036 	bltu	r5,r2,2ac4 <___svfprintf_internal_r+0xd1c>
    1f04:	100490ba 	slli	r2,r2,2
    1f08:	01000034 	movhi	r4,0
    1f0c:	2107c704 	addi	r4,r4,7964
    1f10:	1105883a 	add	r2,r2,r4
    1f14:	10800017 	ldw	r2,0(r2)
    1f18:	1000683a 	jmp	r2
    1f1c:	00002a2c 	andhi	zero,zero,168
    1f20:	00002ac4 	movi	zero,171
    1f24:	00002ac4 	movi	zero,171
    1f28:	00002a20 	cmpeqi	zero,zero,168
    1f2c:	00002ac4 	movi	zero,171
    1f30:	00002ac4 	movi	zero,171
    1f34:	00002ac4 	movi	zero,171
    1f38:	00002ac4 	movi	zero,171
    1f3c:	00002ac4 	movi	zero,171
    1f40:	00002ac4 	movi	zero,171
    1f44:	00002180 	call	218 <alt_instruction_exception_entry+0x44>
    1f48:	0000295c 	xori	zero,zero,165
    1f4c:	00002ac4 	movi	zero,171
    1f50:	00002090 	cmplti	zero,zero,130
    1f54:	000021a8 	cmpgeui	zero,zero,134
    1f58:	00002ac4 	movi	zero,171
    1f5c:	0000221c 	xori	zero,zero,136
    1f60:	000021e8 	cmpgeui	zero,zero,135
    1f64:	000021e8 	cmpgeui	zero,zero,135
    1f68:	000021e8 	cmpgeui	zero,zero,135
    1f6c:	000021e8 	cmpgeui	zero,zero,135
    1f70:	000021e8 	cmpgeui	zero,zero,135
    1f74:	000021e8 	cmpgeui	zero,zero,135
    1f78:	000021e8 	cmpgeui	zero,zero,135
    1f7c:	000021e8 	cmpgeui	zero,zero,135
    1f80:	000021e8 	cmpgeui	zero,zero,135
    1f84:	00002ac4 	movi	zero,171
    1f88:	00002ac4 	movi	zero,171
    1f8c:	00002ac4 	movi	zero,171
    1f90:	00002ac4 	movi	zero,171
    1f94:	00002ac4 	movi	zero,171
    1f98:	00002ac4 	movi	zero,171
    1f9c:	00002ac4 	movi	zero,171
    1fa0:	00002ac4 	movi	zero,171
    1fa4:	00002ac4 	movi	zero,171
    1fa8:	00002ac4 	movi	zero,171
    1fac:	000022d4 	movui	zero,139
    1fb0:	00002228 	cmpgeui	zero,zero,136
    1fb4:	00002ac4 	movi	zero,171
    1fb8:	00002228 	cmpgeui	zero,zero,136
    1fbc:	00002ac4 	movi	zero,171
    1fc0:	00002ac4 	movi	zero,171
    1fc4:	00002ac4 	movi	zero,171
    1fc8:	00002ac4 	movi	zero,171
    1fcc:	000022c8 	cmpgei	zero,zero,139
    1fd0:	00002ac4 	movi	zero,171
    1fd4:	00002ac4 	movi	zero,171
    1fd8:	00002390 	cmplti	zero,zero,142
    1fdc:	00002ac4 	movi	zero,171
    1fe0:	00002ac4 	movi	zero,171
    1fe4:	00002ac4 	movi	zero,171
    1fe8:	00002ac4 	movi	zero,171
    1fec:	00002ac4 	movi	zero,171
    1ff0:	00002800 	call	280 <alt_after_alt_main>
    1ff4:	00002ac4 	movi	zero,171
    1ff8:	00002ac4 	movi	zero,171
    1ffc:	00002860 	cmpeqi	zero,zero,161
    2000:	00002ac4 	movi	zero,171
    2004:	00002ac4 	movi	zero,171
    2008:	00002ac4 	movi	zero,171
    200c:	00002ac4 	movi	zero,171
    2010:	00002ac4 	movi	zero,171
    2014:	00002ac4 	movi	zero,171
    2018:	00002ac4 	movi	zero,171
    201c:	00002ac4 	movi	zero,171
    2020:	00002ac4 	movi	zero,171
    2024:	00002ac4 	movi	zero,171
    2028:	00002910 	cmplti	zero,zero,164
    202c:	00002a4c 	andi	zero,zero,169
    2030:	00002228 	cmpgeui	zero,zero,136
    2034:	00002228 	cmpgeui	zero,zero,136
    2038:	00002228 	cmpgeui	zero,zero,136
    203c:	00002aa0 	cmpeqi	zero,zero,170
    2040:	00002a4c 	andi	zero,zero,169
    2044:	00002ac4 	movi	zero,171
    2048:	00002ac4 	movi	zero,171
    204c:	00002a5c 	xori	zero,zero,169
    2050:	00002ac4 	movi	zero,171
    2054:	00002a6c 	andhi	zero,zero,169
    2058:	0000294c 	andi	zero,zero,165
    205c:	0000209c 	xori	zero,zero,130
    2060:	0000296c 	andhi	zero,zero,165
    2064:	00002ac4 	movi	zero,171
    2068:	00002978 	rdprs	zero,zero,165
    206c:	00002ac4 	movi	zero,171
    2070:	000029d4 	movui	zero,167
    2074:	00002ac4 	movi	zero,171
    2078:	00002ac4 	movi	zero,171
    207c:	000029e4 	muli	zero,zero,167
    2080:	d9003117 	ldw	r4,196(sp)
    2084:	d8802d15 	stw	r2,180(sp)
    2088:	0109c83a 	sub	r4,zero,r4
    208c:	d9003115 	stw	r4,196(sp)
    2090:	94800114 	ori	r18,r18,4
    2094:	bc400007 	ldb	r17,0(r23)
    2098:	003f9706 	br	1ef8 <___svfprintf_internal_r+0x150>
    209c:	00800c04 	movi	r2,48
    20a0:	d9002d17 	ldw	r4,180(sp)
    20a4:	d9402917 	ldw	r5,164(sp)
    20a8:	d8802705 	stb	r2,156(sp)
    20ac:	00801e04 	movi	r2,120
    20b0:	d8802745 	stb	r2,157(sp)
    20b4:	d8002785 	stb	zero,158(sp)
    20b8:	20c00104 	addi	r3,r4,4
    20bc:	25000017 	ldw	r20,0(r4)
    20c0:	002d883a 	mov	r22,zero
    20c4:	90800094 	ori	r2,r18,2
    20c8:	28028616 	blt	r5,zero,2ae4 <___svfprintf_internal_r+0xd3c>
    20cc:	00bfdfc4 	movi	r2,-129
    20d0:	90a4703a 	and	r18,r18,r2
    20d4:	d8c02d15 	stw	r3,180(sp)
    20d8:	94800094 	ori	r18,r18,2
    20dc:	a002731e 	bne	r20,zero,2aac <___svfprintf_internal_r+0xd04>
    20e0:	008000b4 	movhi	r2,2
    20e4:	10a9d204 	addi	r2,r2,-22712
    20e8:	d8803a15 	stw	r2,232(sp)
    20ec:	04401e04 	movi	r17,120
    20f0:	d8c02917 	ldw	r3,164(sp)
    20f4:	0039883a 	mov	fp,zero
    20f8:	1801d526 	beq	r3,zero,2850 <___svfprintf_internal_r+0xaa8>
    20fc:	0029883a 	mov	r20,zero
    2100:	002d883a 	mov	r22,zero
    2104:	0001f106 	br	28cc <___svfprintf_internal_r+0xb24>
    2108:	d9402c17 	ldw	r5,176(sp)
    210c:	d9801e04 	addi	r6,sp,120
    2110:	9809883a 	mov	r4,r19
    2114:	00075540 	call	7554 <__ssprint_r>
    2118:	1000081e 	bne	r2,zero,213c <___svfprintf_internal_r+0x394>
    211c:	da000404 	addi	r8,sp,16
    2120:	003f6306 	br	1eb0 <___svfprintf_internal_r+0x108>
    2124:	d8802017 	ldw	r2,128(sp)
    2128:	10000426 	beq	r2,zero,213c <___svfprintf_internal_r+0x394>
    212c:	d9402c17 	ldw	r5,176(sp)
    2130:	d9003917 	ldw	r4,228(sp)
    2134:	d9801e04 	addi	r6,sp,120
    2138:	00075540 	call	7554 <__ssprint_r>
    213c:	d8802c17 	ldw	r2,176(sp)
    2140:	10c0030b 	ldhu	r3,12(r2)
    2144:	d8802f17 	ldw	r2,188(sp)
    2148:	18c0100c 	andi	r3,r3,64
    214c:	1805f51e 	bne	r3,zero,3924 <___svfprintf_internal_r+0x1b7c>
    2150:	dfc04817 	ldw	ra,288(sp)
    2154:	df004717 	ldw	fp,284(sp)
    2158:	ddc04617 	ldw	r23,280(sp)
    215c:	dd804517 	ldw	r22,276(sp)
    2160:	dd404417 	ldw	r21,272(sp)
    2164:	dd004317 	ldw	r20,268(sp)
    2168:	dcc04217 	ldw	r19,264(sp)
    216c:	dc804117 	ldw	r18,260(sp)
    2170:	dc404017 	ldw	r17,256(sp)
    2174:	dc003f17 	ldw	r16,252(sp)
    2178:	dec04904 	addi	sp,sp,292
    217c:	f800283a 	ret
    2180:	d8802d17 	ldw	r2,180(sp)
    2184:	d9002d17 	ldw	r4,180(sp)
    2188:	10800017 	ldw	r2,0(r2)
    218c:	d8803115 	stw	r2,196(sp)
    2190:	20800104 	addi	r2,r4,4
    2194:	d9003117 	ldw	r4,196(sp)
    2198:	203fb916 	blt	r4,zero,2080 <___svfprintf_internal_r+0x2d8>
    219c:	d8802d15 	stw	r2,180(sp)
    21a0:	bc400007 	ldb	r17,0(r23)
    21a4:	003f5406 	br	1ef8 <___svfprintf_internal_r+0x150>
    21a8:	bc400007 	ldb	r17,0(r23)
    21ac:	bac00044 	addi	r11,r23,1
    21b0:	8a873926 	beq	r17,r10,3e98 <___svfprintf_internal_r+0x20f0>
    21b4:	88bff404 	addi	r2,r17,-48
    21b8:	0009883a 	mov	r4,zero
    21bc:	30868836 	bltu	r6,r2,3be0 <___svfprintf_internal_r+0x1e38>
    21c0:	5c400007 	ldb	r17,0(r11)
    21c4:	210002a4 	muli	r4,r4,10
    21c8:	5dc00044 	addi	r23,r11,1
    21cc:	b817883a 	mov	r11,r23
    21d0:	2089883a 	add	r4,r4,r2
    21d4:	88bff404 	addi	r2,r17,-48
    21d8:	30bff92e 	bgeu	r6,r2,21c0 <___svfprintf_internal_r+0x418>
    21dc:	2005d716 	blt	r4,zero,393c <___svfprintf_internal_r+0x1b94>
    21e0:	d9002915 	stw	r4,164(sp)
    21e4:	003f4506 	br	1efc <___svfprintf_internal_r+0x154>
    21e8:	b809883a 	mov	r4,r23
    21ec:	d8003115 	stw	zero,196(sp)
    21f0:	88bff404 	addi	r2,r17,-48
    21f4:	0017883a 	mov	r11,zero
    21f8:	24400007 	ldb	r17,0(r4)
    21fc:	5ac002a4 	muli	r11,r11,10
    2200:	bdc00044 	addi	r23,r23,1
    2204:	b809883a 	mov	r4,r23
    2208:	12d7883a 	add	r11,r2,r11
    220c:	88bff404 	addi	r2,r17,-48
    2210:	30bff92e 	bgeu	r6,r2,21f8 <___svfprintf_internal_r+0x450>
    2214:	dac03115 	stw	r11,196(sp)
    2218:	003f3806 	br	1efc <___svfprintf_internal_r+0x154>
    221c:	94802014 	ori	r18,r18,128
    2220:	bc400007 	ldb	r17,0(r23)
    2224:	003f3406 	br	1ef8 <___svfprintf_internal_r+0x150>
    2228:	18c03fcc 	andi	r3,r3,255
    222c:	1807471e 	bne	r3,zero,3f4c <___svfprintf_internal_r+0x21a4>
    2230:	9080020c 	andi	r2,r18,8
    2234:	10047d26 	beq	r2,zero,342c <___svfprintf_internal_r+0x1684>
    2238:	d8c02d17 	ldw	r3,180(sp)
    223c:	d9002d17 	ldw	r4,180(sp)
    2240:	d9402d17 	ldw	r5,180(sp)
    2244:	18c00017 	ldw	r3,0(r3)
    2248:	21000117 	ldw	r4,4(r4)
    224c:	29400204 	addi	r5,r5,8
    2250:	d8c03615 	stw	r3,216(sp)
    2254:	d9003715 	stw	r4,220(sp)
    2258:	d9402d15 	stw	r5,180(sp)
    225c:	d9003617 	ldw	r4,216(sp)
    2260:	d9403717 	ldw	r5,220(sp)
    2264:	da003e15 	stw	r8,248(sp)
    2268:	04000044 	movi	r16,1
    226c:	00073180 	call	7318 <__fpclassifyd>
    2270:	da003e17 	ldw	r8,248(sp)
    2274:	14044b1e 	bne	r2,r16,33a4 <___svfprintf_internal_r+0x15fc>
    2278:	d9003617 	ldw	r4,216(sp)
    227c:	d9403717 	ldw	r5,220(sp)
    2280:	000d883a 	mov	r6,zero
    2284:	000f883a 	mov	r7,zero
    2288:	000b59c0 	call	b59c <__ledf2>
    228c:	da003e17 	ldw	r8,248(sp)
    2290:	1005f316 	blt	r2,zero,3a60 <___svfprintf_internal_r+0x1cb8>
    2294:	df002783 	ldbu	fp,158(sp)
    2298:	008011c4 	movi	r2,71
    229c:	1445590e 	bge	r2,r17,3804 <___svfprintf_internal_r+0x1a5c>
    22a0:	040000b4 	movhi	r16,2
    22a4:	8429ca04 	addi	r16,r16,-22744
    22a8:	00c000c4 	movi	r3,3
    22ac:	00bfdfc4 	movi	r2,-129
    22b0:	d8c02a15 	stw	r3,168(sp)
    22b4:	90a4703a 	and	r18,r18,r2
    22b8:	d8c02e15 	stw	r3,184(sp)
    22bc:	d8002915 	stw	zero,164(sp)
    22c0:	d8003215 	stw	zero,200(sp)
    22c4:	00006606 	br	2460 <___svfprintf_internal_r+0x6b8>
    22c8:	94800214 	ori	r18,r18,8
    22cc:	bc400007 	ldb	r17,0(r23)
    22d0:	003f0906 	br	1ef8 <___svfprintf_internal_r+0x150>
    22d4:	18c03fcc 	andi	r3,r3,255
    22d8:	1807181e 	bne	r3,zero,3f3c <___svfprintf_internal_r+0x2194>
    22dc:	94800414 	ori	r18,r18,16
    22e0:	9080080c 	andi	r2,r18,32
    22e4:	10039626 	beq	r2,zero,3140 <___svfprintf_internal_r+0x1398>
    22e8:	d9402d17 	ldw	r5,180(sp)
    22ec:	28800117 	ldw	r2,4(r5)
    22f0:	2d000017 	ldw	r20,0(r5)
    22f4:	29400204 	addi	r5,r5,8
    22f8:	d9402d15 	stw	r5,180(sp)
    22fc:	102d883a 	mov	r22,r2
    2300:	10039816 	blt	r2,zero,3164 <___svfprintf_internal_r+0x13bc>
    2304:	d9402917 	ldw	r5,164(sp)
    2308:	df002783 	ldbu	fp,158(sp)
    230c:	2803ab16 	blt	r5,zero,31bc <___svfprintf_internal_r+0x1414>
    2310:	00ffdfc4 	movi	r3,-129
    2314:	a584b03a 	or	r2,r20,r22
    2318:	90e4703a 	and	r18,r18,r3
    231c:	10014a26 	beq	r2,zero,2848 <___svfprintf_internal_r+0xaa0>
    2320:	b0034b26 	beq	r22,zero,3050 <___svfprintf_internal_r+0x12a8>
    2324:	dc402a15 	stw	r17,168(sp)
    2328:	dc001e04 	addi	r16,sp,120
    232c:	b023883a 	mov	r17,r22
    2330:	402d883a 	mov	r22,r8
    2334:	a009883a 	mov	r4,r20
    2338:	880b883a 	mov	r5,r17
    233c:	01800284 	movi	r6,10
    2340:	000f883a 	mov	r7,zero
    2344:	0009bb80 	call	9bb8 <__umoddi3>
    2348:	10800c04 	addi	r2,r2,48
    234c:	843fffc4 	addi	r16,r16,-1
    2350:	a009883a 	mov	r4,r20
    2354:	880b883a 	mov	r5,r17
    2358:	80800005 	stb	r2,0(r16)
    235c:	01800284 	movi	r6,10
    2360:	000f883a 	mov	r7,zero
    2364:	00096400 	call	9640 <__udivdi3>
    2368:	1029883a 	mov	r20,r2
    236c:	10c4b03a 	or	r2,r2,r3
    2370:	1823883a 	mov	r17,r3
    2374:	103fef1e 	bne	r2,zero,2334 <___svfprintf_internal_r+0x58c>
    2378:	d8c02817 	ldw	r3,160(sp)
    237c:	dc402a17 	ldw	r17,168(sp)
    2380:	b011883a 	mov	r8,r22
    2384:	1c07c83a 	sub	r3,r3,r16
    2388:	d8c02e15 	stw	r3,184(sp)
    238c:	00002e06 	br	2448 <___svfprintf_internal_r+0x6a0>
    2390:	18c03fcc 	andi	r3,r3,255
    2394:	1806e71e 	bne	r3,zero,3f34 <___svfprintf_internal_r+0x218c>
    2398:	94800414 	ori	r18,r18,16
    239c:	9080080c 	andi	r2,r18,32
    23a0:	1002d426 	beq	r2,zero,2ef4 <___svfprintf_internal_r+0x114c>
    23a4:	d9402d17 	ldw	r5,180(sp)
    23a8:	d8c02917 	ldw	r3,164(sp)
    23ac:	d8002785 	stb	zero,158(sp)
    23b0:	28800204 	addi	r2,r5,8
    23b4:	2d000017 	ldw	r20,0(r5)
    23b8:	2d800117 	ldw	r22,4(r5)
    23bc:	18041516 	blt	r3,zero,3414 <___svfprintf_internal_r+0x166c>
    23c0:	013fdfc4 	movi	r4,-129
    23c4:	a586b03a 	or	r3,r20,r22
    23c8:	d8802d15 	stw	r2,180(sp)
    23cc:	9124703a 	and	r18,r18,r4
    23d0:	1802d51e 	bne	r3,zero,2f28 <___svfprintf_internal_r+0x1180>
    23d4:	d9402917 	ldw	r5,164(sp)
    23d8:	0039883a 	mov	fp,zero
    23dc:	2806be26 	beq	r5,zero,3ed8 <___svfprintf_internal_r+0x2130>
    23e0:	0029883a 	mov	r20,zero
    23e4:	002d883a 	mov	r22,zero
    23e8:	dc001e04 	addi	r16,sp,120
    23ec:	a006d0fa 	srli	r3,r20,3
    23f0:	b008977a 	slli	r4,r22,29
    23f4:	b02cd0fa 	srli	r22,r22,3
    23f8:	a50001cc 	andi	r20,r20,7
    23fc:	a0800c04 	addi	r2,r20,48
    2400:	843fffc4 	addi	r16,r16,-1
    2404:	20e8b03a 	or	r20,r4,r3
    2408:	80800005 	stb	r2,0(r16)
    240c:	a586b03a 	or	r3,r20,r22
    2410:	183ff61e 	bne	r3,zero,23ec <___svfprintf_internal_r+0x644>
    2414:	90c0004c 	andi	r3,r18,1
    2418:	18013926 	beq	r3,zero,2900 <___svfprintf_internal_r+0xb58>
    241c:	10803fcc 	andi	r2,r2,255
    2420:	1080201c 	xori	r2,r2,128
    2424:	10bfe004 	addi	r2,r2,-128
    2428:	00c00c04 	movi	r3,48
    242c:	10c13426 	beq	r2,r3,2900 <___svfprintf_internal_r+0xb58>
    2430:	80ffffc5 	stb	r3,-1(r16)
    2434:	d8c02817 	ldw	r3,160(sp)
    2438:	80bfffc4 	addi	r2,r16,-1
    243c:	1021883a 	mov	r16,r2
    2440:	1887c83a 	sub	r3,r3,r2
    2444:	d8c02e15 	stw	r3,184(sp)
    2448:	d8802e17 	ldw	r2,184(sp)
    244c:	d9002917 	ldw	r4,164(sp)
    2450:	1100010e 	bge	r2,r4,2458 <___svfprintf_internal_r+0x6b0>
    2454:	2005883a 	mov	r2,r4
    2458:	d8802a15 	stw	r2,168(sp)
    245c:	d8003215 	stw	zero,200(sp)
    2460:	e7003fcc 	andi	fp,fp,255
    2464:	e700201c 	xori	fp,fp,128
    2468:	e73fe004 	addi	fp,fp,-128
    246c:	e0000326 	beq	fp,zero,247c <___svfprintf_internal_r+0x6d4>
    2470:	d8c02a17 	ldw	r3,168(sp)
    2474:	18c00044 	addi	r3,r3,1
    2478:	d8c02a15 	stw	r3,168(sp)
    247c:	90c0008c 	andi	r3,r18,2
    2480:	d8c02b15 	stw	r3,172(sp)
    2484:	18000326 	beq	r3,zero,2494 <___svfprintf_internal_r+0x6ec>
    2488:	d8c02a17 	ldw	r3,168(sp)
    248c:	18c00084 	addi	r3,r3,2
    2490:	d8c02a15 	stw	r3,168(sp)
    2494:	90c0210c 	andi	r3,r18,132
    2498:	d8c03015 	stw	r3,192(sp)
    249c:	1801a11e 	bne	r3,zero,2b24 <___svfprintf_internal_r+0xd7c>
    24a0:	d9003117 	ldw	r4,196(sp)
    24a4:	d8c02a17 	ldw	r3,168(sp)
    24a8:	20e9c83a 	sub	r20,r4,r3
    24ac:	05019d0e 	bge	zero,r20,2b24 <___svfprintf_internal_r+0xd7c>
    24b0:	02400404 	movi	r9,16
    24b4:	d8c02017 	ldw	r3,128(sp)
    24b8:	d8801f17 	ldw	r2,124(sp)
    24bc:	4d051b0e 	bge	r9,r20,392c <___svfprintf_internal_r+0x1b84>
    24c0:	014000b4 	movhi	r5,2
    24c4:	2969dd84 	addi	r5,r5,-22666
    24c8:	dc403c15 	stw	r17,240(sp)
    24cc:	d9403515 	stw	r5,212(sp)
    24d0:	a023883a 	mov	r17,r20
    24d4:	482d883a 	mov	r22,r9
    24d8:	9029883a 	mov	r20,r18
    24dc:	070001c4 	movi	fp,7
    24e0:	8025883a 	mov	r18,r16
    24e4:	dc002c17 	ldw	r16,176(sp)
    24e8:	00000306 	br	24f8 <___svfprintf_internal_r+0x750>
    24ec:	8c7ffc04 	addi	r17,r17,-16
    24f0:	42000204 	addi	r8,r8,8
    24f4:	b440130e 	bge	r22,r17,2544 <___svfprintf_internal_r+0x79c>
    24f8:	010000b4 	movhi	r4,2
    24fc:	18c00404 	addi	r3,r3,16
    2500:	10800044 	addi	r2,r2,1
    2504:	2129dd84 	addi	r4,r4,-22666
    2508:	41000015 	stw	r4,0(r8)
    250c:	45800115 	stw	r22,4(r8)
    2510:	d8c02015 	stw	r3,128(sp)
    2514:	d8801f15 	stw	r2,124(sp)
    2518:	e0bff40e 	bge	fp,r2,24ec <___svfprintf_internal_r+0x744>
    251c:	d9801e04 	addi	r6,sp,120
    2520:	800b883a 	mov	r5,r16
    2524:	9809883a 	mov	r4,r19
    2528:	00075540 	call	7554 <__ssprint_r>
    252c:	103f031e 	bne	r2,zero,213c <___svfprintf_internal_r+0x394>
    2530:	8c7ffc04 	addi	r17,r17,-16
    2534:	d8c02017 	ldw	r3,128(sp)
    2538:	d8801f17 	ldw	r2,124(sp)
    253c:	da000404 	addi	r8,sp,16
    2540:	b47fed16 	blt	r22,r17,24f8 <___svfprintf_internal_r+0x750>
    2544:	9021883a 	mov	r16,r18
    2548:	a025883a 	mov	r18,r20
    254c:	8829883a 	mov	r20,r17
    2550:	dc403c17 	ldw	r17,240(sp)
    2554:	d9403517 	ldw	r5,212(sp)
    2558:	a0c7883a 	add	r3,r20,r3
    255c:	10800044 	addi	r2,r2,1
    2560:	41400015 	stw	r5,0(r8)
    2564:	45000115 	stw	r20,4(r8)
    2568:	d8c02015 	stw	r3,128(sp)
    256c:	d8801f15 	stw	r2,124(sp)
    2570:	010001c4 	movi	r4,7
    2574:	20829f16 	blt	r4,r2,2ff4 <___svfprintf_internal_r+0x124c>
    2578:	df002787 	ldb	fp,158(sp)
    257c:	42000204 	addi	r8,r8,8
    2580:	e0000c26 	beq	fp,zero,25b4 <___svfprintf_internal_r+0x80c>
    2584:	d8801f17 	ldw	r2,124(sp)
    2588:	d9002784 	addi	r4,sp,158
    258c:	18c00044 	addi	r3,r3,1
    2590:	10800044 	addi	r2,r2,1
    2594:	41000015 	stw	r4,0(r8)
    2598:	01000044 	movi	r4,1
    259c:	41000115 	stw	r4,4(r8)
    25a0:	d8c02015 	stw	r3,128(sp)
    25a4:	d8801f15 	stw	r2,124(sp)
    25a8:	010001c4 	movi	r4,7
    25ac:	20823816 	blt	r4,r2,2e90 <___svfprintf_internal_r+0x10e8>
    25b0:	42000204 	addi	r8,r8,8
    25b4:	d8802b17 	ldw	r2,172(sp)
    25b8:	10000c26 	beq	r2,zero,25ec <___svfprintf_internal_r+0x844>
    25bc:	d8801f17 	ldw	r2,124(sp)
    25c0:	d9002704 	addi	r4,sp,156
    25c4:	18c00084 	addi	r3,r3,2
    25c8:	10800044 	addi	r2,r2,1
    25cc:	41000015 	stw	r4,0(r8)
    25d0:	01000084 	movi	r4,2
    25d4:	41000115 	stw	r4,4(r8)
    25d8:	d8c02015 	stw	r3,128(sp)
    25dc:	d8801f15 	stw	r2,124(sp)
    25e0:	010001c4 	movi	r4,7
    25e4:	20823216 	blt	r4,r2,2eb0 <___svfprintf_internal_r+0x1108>
    25e8:	42000204 	addi	r8,r8,8
    25ec:	d9003017 	ldw	r4,192(sp)
    25f0:	00802004 	movi	r2,128
    25f4:	20819726 	beq	r4,r2,2c54 <___svfprintf_internal_r+0xeac>
    25f8:	d9402917 	ldw	r5,164(sp)
    25fc:	d8802e17 	ldw	r2,184(sp)
    2600:	28adc83a 	sub	r22,r5,r2
    2604:	05802f0e 	bge	zero,r22,26c4 <___svfprintf_internal_r+0x91c>
    2608:	07000404 	movi	fp,16
    260c:	d8801f17 	ldw	r2,124(sp)
    2610:	e583c00e 	bge	fp,r22,3514 <___svfprintf_internal_r+0x176c>
    2614:	014000b4 	movhi	r5,2
    2618:	2969d984 	addi	r5,r5,-22682
    261c:	dc402915 	stw	r17,164(sp)
    2620:	d9402b15 	stw	r5,172(sp)
    2624:	b023883a 	mov	r17,r22
    2628:	050001c4 	movi	r20,7
    262c:	902d883a 	mov	r22,r18
    2630:	8025883a 	mov	r18,r16
    2634:	dc002c17 	ldw	r16,176(sp)
    2638:	00000306 	br	2648 <___svfprintf_internal_r+0x8a0>
    263c:	8c7ffc04 	addi	r17,r17,-16
    2640:	42000204 	addi	r8,r8,8
    2644:	e440110e 	bge	fp,r17,268c <___svfprintf_internal_r+0x8e4>
    2648:	18c00404 	addi	r3,r3,16
    264c:	10800044 	addi	r2,r2,1
    2650:	45400015 	stw	r21,0(r8)
    2654:	47000115 	stw	fp,4(r8)
    2658:	d8c02015 	stw	r3,128(sp)
    265c:	d8801f15 	stw	r2,124(sp)
    2660:	a0bff60e 	bge	r20,r2,263c <___svfprintf_internal_r+0x894>
    2664:	d9801e04 	addi	r6,sp,120
    2668:	800b883a 	mov	r5,r16
    266c:	9809883a 	mov	r4,r19
    2670:	00075540 	call	7554 <__ssprint_r>
    2674:	103eb11e 	bne	r2,zero,213c <___svfprintf_internal_r+0x394>
    2678:	8c7ffc04 	addi	r17,r17,-16
    267c:	d8c02017 	ldw	r3,128(sp)
    2680:	d8801f17 	ldw	r2,124(sp)
    2684:	da000404 	addi	r8,sp,16
    2688:	e47fef16 	blt	fp,r17,2648 <___svfprintf_internal_r+0x8a0>
    268c:	9021883a 	mov	r16,r18
    2690:	b025883a 	mov	r18,r22
    2694:	882d883a 	mov	r22,r17
    2698:	dc402917 	ldw	r17,164(sp)
    269c:	d9002b17 	ldw	r4,172(sp)
    26a0:	1d87883a 	add	r3,r3,r22
    26a4:	10800044 	addi	r2,r2,1
    26a8:	41000015 	stw	r4,0(r8)
    26ac:	45800115 	stw	r22,4(r8)
    26b0:	d8c02015 	stw	r3,128(sp)
    26b4:	d8801f15 	stw	r2,124(sp)
    26b8:	010001c4 	movi	r4,7
    26bc:	2081ec16 	blt	r4,r2,2e70 <___svfprintf_internal_r+0x10c8>
    26c0:	42000204 	addi	r8,r8,8
    26c4:	9080400c 	andi	r2,r18,256
    26c8:	1001181e 	bne	r2,zero,2b2c <___svfprintf_internal_r+0xd84>
    26cc:	d9402e17 	ldw	r5,184(sp)
    26d0:	d8801f17 	ldw	r2,124(sp)
    26d4:	44000015 	stw	r16,0(r8)
    26d8:	1947883a 	add	r3,r3,r5
    26dc:	10800044 	addi	r2,r2,1
    26e0:	41400115 	stw	r5,4(r8)
    26e4:	d8c02015 	stw	r3,128(sp)
    26e8:	d8801f15 	stw	r2,124(sp)
    26ec:	010001c4 	movi	r4,7
    26f0:	2081d116 	blt	r4,r2,2e38 <___svfprintf_internal_r+0x1090>
    26f4:	42000204 	addi	r8,r8,8
    26f8:	9480010c 	andi	r18,r18,4
    26fc:	90003226 	beq	r18,zero,27c8 <___svfprintf_internal_r+0xa20>
    2700:	d9403117 	ldw	r5,196(sp)
    2704:	d8802a17 	ldw	r2,168(sp)
    2708:	28a1c83a 	sub	r16,r5,r2
    270c:	04002e0e 	bge	zero,r16,27c8 <___svfprintf_internal_r+0xa20>
    2710:	04400404 	movi	r17,16
    2714:	d8801f17 	ldw	r2,124(sp)
    2718:	8c04b90e 	bge	r17,r16,3a00 <___svfprintf_internal_r+0x1c58>
    271c:	014000b4 	movhi	r5,2
    2720:	2969dd84 	addi	r5,r5,-22666
    2724:	d9403515 	stw	r5,212(sp)
    2728:	048001c4 	movi	r18,7
    272c:	dd002c17 	ldw	r20,176(sp)
    2730:	00000306 	br	2740 <___svfprintf_internal_r+0x998>
    2734:	843ffc04 	addi	r16,r16,-16
    2738:	42000204 	addi	r8,r8,8
    273c:	8c00130e 	bge	r17,r16,278c <___svfprintf_internal_r+0x9e4>
    2740:	010000b4 	movhi	r4,2
    2744:	18c00404 	addi	r3,r3,16
    2748:	10800044 	addi	r2,r2,1
    274c:	2129dd84 	addi	r4,r4,-22666
    2750:	41000015 	stw	r4,0(r8)
    2754:	44400115 	stw	r17,4(r8)
    2758:	d8c02015 	stw	r3,128(sp)
    275c:	d8801f15 	stw	r2,124(sp)
    2760:	90bff40e 	bge	r18,r2,2734 <___svfprintf_internal_r+0x98c>
    2764:	d9801e04 	addi	r6,sp,120
    2768:	a00b883a 	mov	r5,r20
    276c:	9809883a 	mov	r4,r19
    2770:	00075540 	call	7554 <__ssprint_r>
    2774:	103e711e 	bne	r2,zero,213c <___svfprintf_internal_r+0x394>
    2778:	843ffc04 	addi	r16,r16,-16
    277c:	d8c02017 	ldw	r3,128(sp)
    2780:	d8801f17 	ldw	r2,124(sp)
    2784:	da000404 	addi	r8,sp,16
    2788:	8c3fed16 	blt	r17,r16,2740 <___svfprintf_internal_r+0x998>
    278c:	d9403517 	ldw	r5,212(sp)
    2790:	1c07883a 	add	r3,r3,r16
    2794:	10800044 	addi	r2,r2,1
    2798:	41400015 	stw	r5,0(r8)
    279c:	44000115 	stw	r16,4(r8)
    27a0:	d8c02015 	stw	r3,128(sp)
    27a4:	d8801f15 	stw	r2,124(sp)
    27a8:	010001c4 	movi	r4,7
    27ac:	2080060e 	bge	r4,r2,27c8 <___svfprintf_internal_r+0xa20>
    27b0:	d9402c17 	ldw	r5,176(sp)
    27b4:	d9801e04 	addi	r6,sp,120
    27b8:	9809883a 	mov	r4,r19
    27bc:	00075540 	call	7554 <__ssprint_r>
    27c0:	103e5e1e 	bne	r2,zero,213c <___svfprintf_internal_r+0x394>
    27c4:	d8c02017 	ldw	r3,128(sp)
    27c8:	d8803117 	ldw	r2,196(sp)
    27cc:	d9002a17 	ldw	r4,168(sp)
    27d0:	1100010e 	bge	r2,r4,27d8 <___svfprintf_internal_r+0xa30>
    27d4:	2005883a 	mov	r2,r4
    27d8:	d9402f17 	ldw	r5,188(sp)
    27dc:	288b883a 	add	r5,r5,r2
    27e0:	d9402f15 	stw	r5,188(sp)
    27e4:	18019c1e 	bne	r3,zero,2e58 <___svfprintf_internal_r+0x10b0>
    27e8:	b8800007 	ldb	r2,0(r23)
    27ec:	d8001f15 	stw	zero,124(sp)
    27f0:	da000404 	addi	r8,sp,16
    27f4:	103d991e 	bne	r2,zero,1e5c <___svfprintf_internal_r+0xb4>
    27f8:	b821883a 	mov	r16,r23
    27fc:	003daf06 	br	1ebc <___svfprintf_internal_r+0x114>
    2800:	18c03fcc 	andi	r3,r3,255
    2804:	1805c71e 	bne	r3,zero,3f24 <___svfprintf_internal_r+0x217c>
    2808:	94800414 	ori	r18,r18,16
    280c:	9080080c 	andi	r2,r18,32
    2810:	10020126 	beq	r2,zero,3018 <___svfprintf_internal_r+0x1270>
    2814:	d8802d17 	ldw	r2,180(sp)
    2818:	d9002917 	ldw	r4,164(sp)
    281c:	d8002785 	stb	zero,158(sp)
    2820:	10c00204 	addi	r3,r2,8
    2824:	15000017 	ldw	r20,0(r2)
    2828:	15800117 	ldw	r22,4(r2)
    282c:	20038e16 	blt	r4,zero,3668 <___svfprintf_internal_r+0x18c0>
    2830:	013fdfc4 	movi	r4,-129
    2834:	a584b03a 	or	r2,r20,r22
    2838:	d8c02d15 	stw	r3,180(sp)
    283c:	9124703a 	and	r18,r18,r4
    2840:	0039883a 	mov	fp,zero
    2844:	103eb61e 	bne	r2,zero,2320 <___svfprintf_internal_r+0x578>
    2848:	d8802917 	ldw	r2,164(sp)
    284c:	1002c81e 	bne	r2,zero,3370 <___svfprintf_internal_r+0x15c8>
    2850:	d8002915 	stw	zero,164(sp)
    2854:	d8002e15 	stw	zero,184(sp)
    2858:	dc001e04 	addi	r16,sp,120
    285c:	003efa06 	br	2448 <___svfprintf_internal_r+0x6a0>
    2860:	18c03fcc 	andi	r3,r3,255
    2864:	1805ad1e 	bne	r3,zero,3f1c <___svfprintf_internal_r+0x2174>
    2868:	014000b4 	movhi	r5,2
    286c:	2969cd04 	addi	r5,r5,-22732
    2870:	d9403a15 	stw	r5,232(sp)
    2874:	9080080c 	andi	r2,r18,32
    2878:	10006126 	beq	r2,zero,2a00 <___svfprintf_internal_r+0xc58>
    287c:	d8802d17 	ldw	r2,180(sp)
    2880:	15000017 	ldw	r20,0(r2)
    2884:	15800117 	ldw	r22,4(r2)
    2888:	10800204 	addi	r2,r2,8
    288c:	d8802d15 	stw	r2,180(sp)
    2890:	9080004c 	andi	r2,r18,1
    2894:	10018e26 	beq	r2,zero,2ed0 <___svfprintf_internal_r+0x1128>
    2898:	a584b03a 	or	r2,r20,r22
    289c:	10030926 	beq	r2,zero,34c4 <___svfprintf_internal_r+0x171c>
    28a0:	d8c02917 	ldw	r3,164(sp)
    28a4:	00800c04 	movi	r2,48
    28a8:	d8802705 	stb	r2,156(sp)
    28ac:	dc402745 	stb	r17,157(sp)
    28b0:	d8002785 	stb	zero,158(sp)
    28b4:	90800094 	ori	r2,r18,2
    28b8:	18048716 	blt	r3,zero,3ad8 <___svfprintf_internal_r+0x1d30>
    28bc:	00bfdfc4 	movi	r2,-129
    28c0:	90a4703a 	and	r18,r18,r2
    28c4:	94800094 	ori	r18,r18,2
    28c8:	0039883a 	mov	fp,zero
    28cc:	d9003a17 	ldw	r4,232(sp)
    28d0:	dc001e04 	addi	r16,sp,120
    28d4:	a08003cc 	andi	r2,r20,15
    28d8:	b006973a 	slli	r3,r22,28
    28dc:	2085883a 	add	r2,r4,r2
    28e0:	a028d13a 	srli	r20,r20,4
    28e4:	10800003 	ldbu	r2,0(r2)
    28e8:	b02cd13a 	srli	r22,r22,4
    28ec:	843fffc4 	addi	r16,r16,-1
    28f0:	1d28b03a 	or	r20,r3,r20
    28f4:	80800005 	stb	r2,0(r16)
    28f8:	a584b03a 	or	r2,r20,r22
    28fc:	103ff51e 	bne	r2,zero,28d4 <___svfprintf_internal_r+0xb2c>
    2900:	d8c02817 	ldw	r3,160(sp)
    2904:	1c07c83a 	sub	r3,r3,r16
    2908:	d8c02e15 	stw	r3,184(sp)
    290c:	003ece06 	br	2448 <___svfprintf_internal_r+0x6a0>
    2910:	d8c02d17 	ldw	r3,180(sp)
    2914:	d9002d17 	ldw	r4,180(sp)
    2918:	d8002785 	stb	zero,158(sp)
    291c:	18800017 	ldw	r2,0(r3)
    2920:	21000104 	addi	r4,r4,4
    2924:	00c00044 	movi	r3,1
    2928:	d8c02a15 	stw	r3,168(sp)
    292c:	d8801405 	stb	r2,80(sp)
    2930:	d9002d15 	stw	r4,180(sp)
    2934:	d8c02e15 	stw	r3,184(sp)
    2938:	d8002915 	stw	zero,164(sp)
    293c:	d8003215 	stw	zero,200(sp)
    2940:	dc001404 	addi	r16,sp,80
    2944:	0039883a 	mov	fp,zero
    2948:	003ecc06 	br	247c <___svfprintf_internal_r+0x6d4>
    294c:	18c03fcc 	andi	r3,r3,255
    2950:	183e9226 	beq	r3,zero,239c <___svfprintf_internal_r+0x5f4>
    2954:	d9c02785 	stb	r7,158(sp)
    2958:	003e9006 	br	239c <___svfprintf_internal_r+0x5f4>
    295c:	00c00044 	movi	r3,1
    2960:	01c00ac4 	movi	r7,43
    2964:	bc400007 	ldb	r17,0(r23)
    2968:	003d6306 	br	1ef8 <___svfprintf_internal_r+0x150>
    296c:	94800814 	ori	r18,r18,32
    2970:	bc400007 	ldb	r17,0(r23)
    2974:	003d6006 	br	1ef8 <___svfprintf_internal_r+0x150>
    2978:	d8c02d17 	ldw	r3,180(sp)
    297c:	d8002785 	stb	zero,158(sp)
    2980:	1c000017 	ldw	r16,0(r3)
    2984:	1d000104 	addi	r20,r3,4
    2988:	80040f26 	beq	r16,zero,39c8 <___svfprintf_internal_r+0x1c20>
    298c:	d9002917 	ldw	r4,164(sp)
    2990:	2003dc16 	blt	r4,zero,3904 <___svfprintf_internal_r+0x1b5c>
    2994:	200d883a 	mov	r6,r4
    2998:	000b883a 	mov	r5,zero
    299c:	8009883a 	mov	r4,r16
    29a0:	da003e15 	stw	r8,248(sp)
    29a4:	00060f00 	call	60f0 <memchr>
    29a8:	da003e17 	ldw	r8,248(sp)
    29ac:	10045826 	beq	r2,zero,3b10 <___svfprintf_internal_r+0x1d68>
    29b0:	1405c83a 	sub	r2,r2,r16
    29b4:	d8802e15 	stw	r2,184(sp)
    29b8:	1003d816 	blt	r2,zero,391c <___svfprintf_internal_r+0x1b74>
    29bc:	df002783 	ldbu	fp,158(sp)
    29c0:	d8802a15 	stw	r2,168(sp)
    29c4:	dd002d15 	stw	r20,180(sp)
    29c8:	d8002915 	stw	zero,164(sp)
    29cc:	d8003215 	stw	zero,200(sp)
    29d0:	003ea306 	br	2460 <___svfprintf_internal_r+0x6b8>
    29d4:	18c03fcc 	andi	r3,r3,255
    29d8:	183f8c26 	beq	r3,zero,280c <___svfprintf_internal_r+0xa64>
    29dc:	d9c02785 	stb	r7,158(sp)
    29e0:	003f8a06 	br	280c <___svfprintf_internal_r+0xa64>
    29e4:	18c03fcc 	andi	r3,r3,255
    29e8:	1805631e 	bne	r3,zero,3f78 <___svfprintf_internal_r+0x21d0>
    29ec:	014000b4 	movhi	r5,2
    29f0:	2969d204 	addi	r5,r5,-22712
    29f4:	d9403a15 	stw	r5,232(sp)
    29f8:	9080080c 	andi	r2,r18,32
    29fc:	103f9f1e 	bne	r2,zero,287c <___svfprintf_internal_r+0xad4>
    2a00:	9080040c 	andi	r2,r18,16
    2a04:	10029c26 	beq	r2,zero,3478 <___svfprintf_internal_r+0x16d0>
    2a08:	d8c02d17 	ldw	r3,180(sp)
    2a0c:	002d883a 	mov	r22,zero
    2a10:	1d000017 	ldw	r20,0(r3)
    2a14:	18c00104 	addi	r3,r3,4
    2a18:	d8c02d15 	stw	r3,180(sp)
    2a1c:	003f9c06 	br	2890 <___svfprintf_internal_r+0xae8>
    2a20:	94800054 	ori	r18,r18,1
    2a24:	bc400007 	ldb	r17,0(r23)
    2a28:	003d3306 	br	1ef8 <___svfprintf_internal_r+0x150>
    2a2c:	38803fcc 	andi	r2,r7,255
    2a30:	1080201c 	xori	r2,r2,128
    2a34:	10bfe004 	addi	r2,r2,-128
    2a38:	1002971e 	bne	r2,zero,3498 <___svfprintf_internal_r+0x16f0>
    2a3c:	00c00044 	movi	r3,1
    2a40:	01c00804 	movi	r7,32
    2a44:	bc400007 	ldb	r17,0(r23)
    2a48:	003d2b06 	br	1ef8 <___svfprintf_internal_r+0x150>
    2a4c:	18c03fcc 	andi	r3,r3,255
    2a50:	183e2326 	beq	r3,zero,22e0 <___svfprintf_internal_r+0x538>
    2a54:	d9c02785 	stb	r7,158(sp)
    2a58:	003e2106 	br	22e0 <___svfprintf_internal_r+0x538>
    2a5c:	bc400007 	ldb	r17,0(r23)
    2a60:	8a430426 	beq	r17,r9,3674 <___svfprintf_internal_r+0x18cc>
    2a64:	94800414 	ori	r18,r18,16
    2a68:	003d2306 	br	1ef8 <___svfprintf_internal_r+0x150>
    2a6c:	18c03fcc 	andi	r3,r3,255
    2a70:	18053f1e 	bne	r3,zero,3f70 <___svfprintf_internal_r+0x21c8>
    2a74:	9080080c 	andi	r2,r18,32
    2a78:	10028926 	beq	r2,zero,34a0 <___svfprintf_internal_r+0x16f8>
    2a7c:	d9402d17 	ldw	r5,180(sp)
    2a80:	d9002f17 	ldw	r4,188(sp)
    2a84:	28800017 	ldw	r2,0(r5)
    2a88:	2007d7fa 	srai	r3,r4,31
    2a8c:	29400104 	addi	r5,r5,4
    2a90:	d9402d15 	stw	r5,180(sp)
    2a94:	11000015 	stw	r4,0(r2)
    2a98:	10c00115 	stw	r3,4(r2)
    2a9c:	003ced06 	br	1e54 <___svfprintf_internal_r+0xac>
    2aa0:	94801014 	ori	r18,r18,64
    2aa4:	bc400007 	ldb	r17,0(r23)
    2aa8:	003d1306 	br	1ef8 <___svfprintf_internal_r+0x150>
    2aac:	010000b4 	movhi	r4,2
    2ab0:	2129d204 	addi	r4,r4,-22712
    2ab4:	0039883a 	mov	fp,zero
    2ab8:	d9003a15 	stw	r4,232(sp)
    2abc:	04401e04 	movi	r17,120
    2ac0:	003f8206 	br	28cc <___svfprintf_internal_r+0xb24>
    2ac4:	18c03fcc 	andi	r3,r3,255
    2ac8:	1805221e 	bne	r3,zero,3f54 <___svfprintf_internal_r+0x21ac>
    2acc:	883d9526 	beq	r17,zero,2124 <___svfprintf_internal_r+0x37c>
    2ad0:	00c00044 	movi	r3,1
    2ad4:	d8c02a15 	stw	r3,168(sp)
    2ad8:	dc401405 	stb	r17,80(sp)
    2adc:	d8002785 	stb	zero,158(sp)
    2ae0:	003f9406 	br	2934 <___svfprintf_internal_r+0xb8c>
    2ae4:	010000b4 	movhi	r4,2
    2ae8:	2129d204 	addi	r4,r4,-22712
    2aec:	d9003a15 	stw	r4,232(sp)
    2af0:	d8c02d15 	stw	r3,180(sp)
    2af4:	1025883a 	mov	r18,r2
    2af8:	04401e04 	movi	r17,120
    2afc:	a584b03a 	or	r2,r20,r22
    2b00:	1000fa1e 	bne	r2,zero,2eec <___svfprintf_internal_r+0x1144>
    2b04:	0039883a 	mov	fp,zero
    2b08:	00800084 	movi	r2,2
    2b0c:	10803fcc 	andi	r2,r2,255
    2b10:	00c00044 	movi	r3,1
    2b14:	10c21626 	beq	r2,r3,3370 <___svfprintf_internal_r+0x15c8>
    2b18:	00c00084 	movi	r3,2
    2b1c:	10fe301e 	bne	r2,r3,23e0 <___svfprintf_internal_r+0x638>
    2b20:	003d7606 	br	20fc <___svfprintf_internal_r+0x354>
    2b24:	d8c02017 	ldw	r3,128(sp)
    2b28:	003e9506 	br	2580 <___svfprintf_internal_r+0x7d8>
    2b2c:	00801944 	movi	r2,101
    2b30:	14407c0e 	bge	r2,r17,2d24 <___svfprintf_internal_r+0xf7c>
    2b34:	d9003617 	ldw	r4,216(sp)
    2b38:	d9403717 	ldw	r5,220(sp)
    2b3c:	000d883a 	mov	r6,zero
    2b40:	000f883a 	mov	r7,zero
    2b44:	d8c03d15 	stw	r3,244(sp)
    2b48:	da003e15 	stw	r8,248(sp)
    2b4c:	000b4380 	call	b438 <__eqdf2>
    2b50:	d8c03d17 	ldw	r3,244(sp)
    2b54:	da003e17 	ldw	r8,248(sp)
    2b58:	1000f51e 	bne	r2,zero,2f30 <___svfprintf_internal_r+0x1188>
    2b5c:	d8801f17 	ldw	r2,124(sp)
    2b60:	010000b4 	movhi	r4,2
    2b64:	2129d904 	addi	r4,r4,-22684
    2b68:	18c00044 	addi	r3,r3,1
    2b6c:	10800044 	addi	r2,r2,1
    2b70:	41000015 	stw	r4,0(r8)
    2b74:	01000044 	movi	r4,1
    2b78:	41000115 	stw	r4,4(r8)
    2b7c:	d8c02015 	stw	r3,128(sp)
    2b80:	d8801f15 	stw	r2,124(sp)
    2b84:	010001c4 	movi	r4,7
    2b88:	20826616 	blt	r4,r2,3524 <___svfprintf_internal_r+0x177c>
    2b8c:	42000204 	addi	r8,r8,8
    2b90:	d8802617 	ldw	r2,152(sp)
    2b94:	d9403317 	ldw	r5,204(sp)
    2b98:	11400216 	blt	r2,r5,2ba4 <___svfprintf_internal_r+0xdfc>
    2b9c:	9080004c 	andi	r2,r18,1
    2ba0:	103ed526 	beq	r2,zero,26f8 <___svfprintf_internal_r+0x950>
    2ba4:	d8803817 	ldw	r2,224(sp)
    2ba8:	d9003417 	ldw	r4,208(sp)
    2bac:	d9403817 	ldw	r5,224(sp)
    2bb0:	1887883a 	add	r3,r3,r2
    2bb4:	d8801f17 	ldw	r2,124(sp)
    2bb8:	41000015 	stw	r4,0(r8)
    2bbc:	41400115 	stw	r5,4(r8)
    2bc0:	10800044 	addi	r2,r2,1
    2bc4:	d8c02015 	stw	r3,128(sp)
    2bc8:	d8801f15 	stw	r2,124(sp)
    2bcc:	010001c4 	movi	r4,7
    2bd0:	2082af16 	blt	r4,r2,3690 <___svfprintf_internal_r+0x18e8>
    2bd4:	42000204 	addi	r8,r8,8
    2bd8:	d8803317 	ldw	r2,204(sp)
    2bdc:	143fffc4 	addi	r16,r2,-1
    2be0:	043ec50e 	bge	zero,r16,26f8 <___svfprintf_internal_r+0x950>
    2be4:	04400404 	movi	r17,16
    2be8:	d8801f17 	ldw	r2,124(sp)
    2bec:	8c00860e 	bge	r17,r16,2e08 <___svfprintf_internal_r+0x1060>
    2bf0:	014000b4 	movhi	r5,2
    2bf4:	2969d984 	addi	r5,r5,-22682
    2bf8:	d9402b15 	stw	r5,172(sp)
    2bfc:	058001c4 	movi	r22,7
    2c00:	dd002c17 	ldw	r20,176(sp)
    2c04:	00000306 	br	2c14 <___svfprintf_internal_r+0xe6c>
    2c08:	42000204 	addi	r8,r8,8
    2c0c:	843ffc04 	addi	r16,r16,-16
    2c10:	8c00800e 	bge	r17,r16,2e14 <___svfprintf_internal_r+0x106c>
    2c14:	18c00404 	addi	r3,r3,16
    2c18:	10800044 	addi	r2,r2,1
    2c1c:	45400015 	stw	r21,0(r8)
    2c20:	44400115 	stw	r17,4(r8)
    2c24:	d8c02015 	stw	r3,128(sp)
    2c28:	d8801f15 	stw	r2,124(sp)
    2c2c:	b0bff60e 	bge	r22,r2,2c08 <___svfprintf_internal_r+0xe60>
    2c30:	d9801e04 	addi	r6,sp,120
    2c34:	a00b883a 	mov	r5,r20
    2c38:	9809883a 	mov	r4,r19
    2c3c:	00075540 	call	7554 <__ssprint_r>
    2c40:	103d3e1e 	bne	r2,zero,213c <___svfprintf_internal_r+0x394>
    2c44:	d8c02017 	ldw	r3,128(sp)
    2c48:	d8801f17 	ldw	r2,124(sp)
    2c4c:	da000404 	addi	r8,sp,16
    2c50:	003fee06 	br	2c0c <___svfprintf_internal_r+0xe64>
    2c54:	d9403117 	ldw	r5,196(sp)
    2c58:	d8802a17 	ldw	r2,168(sp)
    2c5c:	28adc83a 	sub	r22,r5,r2
    2c60:	05be650e 	bge	zero,r22,25f8 <___svfprintf_internal_r+0x850>
    2c64:	07000404 	movi	fp,16
    2c68:	d8801f17 	ldw	r2,124(sp)
    2c6c:	e583a20e 	bge	fp,r22,3af8 <___svfprintf_internal_r+0x1d50>
    2c70:	014000b4 	movhi	r5,2
    2c74:	2969d984 	addi	r5,r5,-22682
    2c78:	dc403015 	stw	r17,192(sp)
    2c7c:	d9402b15 	stw	r5,172(sp)
    2c80:	b023883a 	mov	r17,r22
    2c84:	050001c4 	movi	r20,7
    2c88:	902d883a 	mov	r22,r18
    2c8c:	8025883a 	mov	r18,r16
    2c90:	dc002c17 	ldw	r16,176(sp)
    2c94:	00000306 	br	2ca4 <___svfprintf_internal_r+0xefc>
    2c98:	8c7ffc04 	addi	r17,r17,-16
    2c9c:	42000204 	addi	r8,r8,8
    2ca0:	e440110e 	bge	fp,r17,2ce8 <___svfprintf_internal_r+0xf40>
    2ca4:	18c00404 	addi	r3,r3,16
    2ca8:	10800044 	addi	r2,r2,1
    2cac:	45400015 	stw	r21,0(r8)
    2cb0:	47000115 	stw	fp,4(r8)
    2cb4:	d8c02015 	stw	r3,128(sp)
    2cb8:	d8801f15 	stw	r2,124(sp)
    2cbc:	a0bff60e 	bge	r20,r2,2c98 <___svfprintf_internal_r+0xef0>
    2cc0:	d9801e04 	addi	r6,sp,120
    2cc4:	800b883a 	mov	r5,r16
    2cc8:	9809883a 	mov	r4,r19
    2ccc:	00075540 	call	7554 <__ssprint_r>
    2cd0:	103d1a1e 	bne	r2,zero,213c <___svfprintf_internal_r+0x394>
    2cd4:	8c7ffc04 	addi	r17,r17,-16
    2cd8:	d8c02017 	ldw	r3,128(sp)
    2cdc:	d8801f17 	ldw	r2,124(sp)
    2ce0:	da000404 	addi	r8,sp,16
    2ce4:	e47fef16 	blt	fp,r17,2ca4 <___svfprintf_internal_r+0xefc>
    2ce8:	9021883a 	mov	r16,r18
    2cec:	b025883a 	mov	r18,r22
    2cf0:	882d883a 	mov	r22,r17
    2cf4:	dc403017 	ldw	r17,192(sp)
    2cf8:	d9002b17 	ldw	r4,172(sp)
    2cfc:	1d87883a 	add	r3,r3,r22
    2d00:	10800044 	addi	r2,r2,1
    2d04:	41000015 	stw	r4,0(r8)
    2d08:	45800115 	stw	r22,4(r8)
    2d0c:	d8c02015 	stw	r3,128(sp)
    2d10:	d8801f15 	stw	r2,124(sp)
    2d14:	010001c4 	movi	r4,7
    2d18:	20819a16 	blt	r4,r2,3384 <___svfprintf_internal_r+0x15dc>
    2d1c:	42000204 	addi	r8,r8,8
    2d20:	003e3506 	br	25f8 <___svfprintf_internal_r+0x850>
    2d24:	d9403317 	ldw	r5,204(sp)
    2d28:	00800044 	movi	r2,1
    2d2c:	18c00044 	addi	r3,r3,1
    2d30:	1141710e 	bge	r2,r5,32f8 <___svfprintf_internal_r+0x1550>
    2d34:	dc401f17 	ldw	r17,124(sp)
    2d38:	00800044 	movi	r2,1
    2d3c:	40800115 	stw	r2,4(r8)
    2d40:	8c400044 	addi	r17,r17,1
    2d44:	44000015 	stw	r16,0(r8)
    2d48:	d8c02015 	stw	r3,128(sp)
    2d4c:	dc401f15 	stw	r17,124(sp)
    2d50:	008001c4 	movi	r2,7
    2d54:	14417416 	blt	r2,r17,3328 <___svfprintf_internal_r+0x1580>
    2d58:	42000204 	addi	r8,r8,8
    2d5c:	d8803817 	ldw	r2,224(sp)
    2d60:	d9003417 	ldw	r4,208(sp)
    2d64:	8c400044 	addi	r17,r17,1
    2d68:	10c7883a 	add	r3,r2,r3
    2d6c:	40800115 	stw	r2,4(r8)
    2d70:	41000015 	stw	r4,0(r8)
    2d74:	d8c02015 	stw	r3,128(sp)
    2d78:	dc401f15 	stw	r17,124(sp)
    2d7c:	008001c4 	movi	r2,7
    2d80:	14417216 	blt	r2,r17,334c <___svfprintf_internal_r+0x15a4>
    2d84:	45800204 	addi	r22,r8,8
    2d88:	d9003617 	ldw	r4,216(sp)
    2d8c:	d9403717 	ldw	r5,220(sp)
    2d90:	000d883a 	mov	r6,zero
    2d94:	000f883a 	mov	r7,zero
    2d98:	d8c03d15 	stw	r3,244(sp)
    2d9c:	000b4380 	call	b438 <__eqdf2>
    2da0:	d8c03d17 	ldw	r3,244(sp)
    2da4:	1000b326 	beq	r2,zero,3074 <___svfprintf_internal_r+0x12cc>
    2da8:	d9403317 	ldw	r5,204(sp)
    2dac:	84000044 	addi	r16,r16,1
    2db0:	8c400044 	addi	r17,r17,1
    2db4:	28bfffc4 	addi	r2,r5,-1
    2db8:	1887883a 	add	r3,r3,r2
    2dbc:	b0800115 	stw	r2,4(r22)
    2dc0:	b4000015 	stw	r16,0(r22)
    2dc4:	d8c02015 	stw	r3,128(sp)
    2dc8:	dc401f15 	stw	r17,124(sp)
    2dcc:	008001c4 	movi	r2,7
    2dd0:	1440d216 	blt	r2,r17,311c <___svfprintf_internal_r+0x1374>
    2dd4:	b5800204 	addi	r22,r22,8
    2dd8:	d9003b17 	ldw	r4,236(sp)
    2ddc:	df0022c4 	addi	fp,sp,139
    2de0:	8c400044 	addi	r17,r17,1
    2de4:	20c7883a 	add	r3,r4,r3
    2de8:	b7000015 	stw	fp,0(r22)
    2dec:	b1000115 	stw	r4,4(r22)
    2df0:	d8c02015 	stw	r3,128(sp)
    2df4:	dc401f15 	stw	r17,124(sp)
    2df8:	008001c4 	movi	r2,7
    2dfc:	14400e16 	blt	r2,r17,2e38 <___svfprintf_internal_r+0x1090>
    2e00:	b2000204 	addi	r8,r22,8
    2e04:	003e3c06 	br	26f8 <___svfprintf_internal_r+0x950>
    2e08:	010000b4 	movhi	r4,2
    2e0c:	2129d984 	addi	r4,r4,-22682
    2e10:	d9002b15 	stw	r4,172(sp)
    2e14:	d9002b17 	ldw	r4,172(sp)
    2e18:	1c07883a 	add	r3,r3,r16
    2e1c:	44000115 	stw	r16,4(r8)
    2e20:	41000015 	stw	r4,0(r8)
    2e24:	10800044 	addi	r2,r2,1
    2e28:	d8c02015 	stw	r3,128(sp)
    2e2c:	d8801f15 	stw	r2,124(sp)
    2e30:	010001c4 	movi	r4,7
    2e34:	20be2f0e 	bge	r4,r2,26f4 <___svfprintf_internal_r+0x94c>
    2e38:	d9402c17 	ldw	r5,176(sp)
    2e3c:	d9801e04 	addi	r6,sp,120
    2e40:	9809883a 	mov	r4,r19
    2e44:	00075540 	call	7554 <__ssprint_r>
    2e48:	103cbc1e 	bne	r2,zero,213c <___svfprintf_internal_r+0x394>
    2e4c:	d8c02017 	ldw	r3,128(sp)
    2e50:	da000404 	addi	r8,sp,16
    2e54:	003e2806 	br	26f8 <___svfprintf_internal_r+0x950>
    2e58:	d9402c17 	ldw	r5,176(sp)
    2e5c:	d9801e04 	addi	r6,sp,120
    2e60:	9809883a 	mov	r4,r19
    2e64:	00075540 	call	7554 <__ssprint_r>
    2e68:	103e5f26 	beq	r2,zero,27e8 <___svfprintf_internal_r+0xa40>
    2e6c:	003cb306 	br	213c <___svfprintf_internal_r+0x394>
    2e70:	d9402c17 	ldw	r5,176(sp)
    2e74:	d9801e04 	addi	r6,sp,120
    2e78:	9809883a 	mov	r4,r19
    2e7c:	00075540 	call	7554 <__ssprint_r>
    2e80:	103cae1e 	bne	r2,zero,213c <___svfprintf_internal_r+0x394>
    2e84:	d8c02017 	ldw	r3,128(sp)
    2e88:	da000404 	addi	r8,sp,16
    2e8c:	003e0d06 	br	26c4 <___svfprintf_internal_r+0x91c>
    2e90:	d9402c17 	ldw	r5,176(sp)
    2e94:	d9801e04 	addi	r6,sp,120
    2e98:	9809883a 	mov	r4,r19
    2e9c:	00075540 	call	7554 <__ssprint_r>
    2ea0:	103ca61e 	bne	r2,zero,213c <___svfprintf_internal_r+0x394>
    2ea4:	d8c02017 	ldw	r3,128(sp)
    2ea8:	da000404 	addi	r8,sp,16
    2eac:	003dc106 	br	25b4 <___svfprintf_internal_r+0x80c>
    2eb0:	d9402c17 	ldw	r5,176(sp)
    2eb4:	d9801e04 	addi	r6,sp,120
    2eb8:	9809883a 	mov	r4,r19
    2ebc:	00075540 	call	7554 <__ssprint_r>
    2ec0:	103c9e1e 	bne	r2,zero,213c <___svfprintf_internal_r+0x394>
    2ec4:	d8c02017 	ldw	r3,128(sp)
    2ec8:	da000404 	addi	r8,sp,16
    2ecc:	003dc706 	br	25ec <___svfprintf_internal_r+0x844>
    2ed0:	d8802917 	ldw	r2,164(sp)
    2ed4:	d8002785 	stb	zero,158(sp)
    2ed8:	103f0816 	blt	r2,zero,2afc <___svfprintf_internal_r+0xd54>
    2edc:	00ffdfc4 	movi	r3,-129
    2ee0:	a584b03a 	or	r2,r20,r22
    2ee4:	90e4703a 	and	r18,r18,r3
    2ee8:	103c8126 	beq	r2,zero,20f0 <___svfprintf_internal_r+0x348>
    2eec:	0039883a 	mov	fp,zero
    2ef0:	003e7606 	br	28cc <___svfprintf_internal_r+0xb24>
    2ef4:	9080040c 	andi	r2,r18,16
    2ef8:	10013d26 	beq	r2,zero,33f0 <___svfprintf_internal_r+0x1648>
    2efc:	d9002d17 	ldw	r4,180(sp)
    2f00:	d9402917 	ldw	r5,164(sp)
    2f04:	d8002785 	stb	zero,158(sp)
    2f08:	20800104 	addi	r2,r4,4
    2f0c:	25000017 	ldw	r20,0(r4)
    2f10:	002d883a 	mov	r22,zero
    2f14:	28013f16 	blt	r5,zero,3414 <___svfprintf_internal_r+0x166c>
    2f18:	00ffdfc4 	movi	r3,-129
    2f1c:	d8802d15 	stw	r2,180(sp)
    2f20:	90e4703a 	and	r18,r18,r3
    2f24:	a03d2b26 	beq	r20,zero,23d4 <___svfprintf_internal_r+0x62c>
    2f28:	0039883a 	mov	fp,zero
    2f2c:	003d2e06 	br	23e8 <___svfprintf_internal_r+0x640>
    2f30:	dc402617 	ldw	r17,152(sp)
    2f34:	0441830e 	bge	zero,r17,3544 <___svfprintf_internal_r+0x179c>
    2f38:	dc403217 	ldw	r17,200(sp)
    2f3c:	d8803317 	ldw	r2,204(sp)
    2f40:	1440010e 	bge	r2,r17,2f48 <___svfprintf_internal_r+0x11a0>
    2f44:	1023883a 	mov	r17,r2
    2f48:	04400a0e 	bge	zero,r17,2f74 <___svfprintf_internal_r+0x11cc>
    2f4c:	d8801f17 	ldw	r2,124(sp)
    2f50:	1c47883a 	add	r3,r3,r17
    2f54:	44000015 	stw	r16,0(r8)
    2f58:	10800044 	addi	r2,r2,1
    2f5c:	44400115 	stw	r17,4(r8)
    2f60:	d8c02015 	stw	r3,128(sp)
    2f64:	d8801f15 	stw	r2,124(sp)
    2f68:	010001c4 	movi	r4,7
    2f6c:	20827516 	blt	r4,r2,3944 <___svfprintf_internal_r+0x1b9c>
    2f70:	42000204 	addi	r8,r8,8
    2f74:	88027b16 	blt	r17,zero,3964 <___svfprintf_internal_r+0x1bbc>
    2f78:	d9003217 	ldw	r4,200(sp)
    2f7c:	2463c83a 	sub	r17,r4,r17
    2f80:	0440990e 	bge	zero,r17,31e8 <___svfprintf_internal_r+0x1440>
    2f84:	05800404 	movi	r22,16
    2f88:	d8801f17 	ldw	r2,124(sp)
    2f8c:	b441530e 	bge	r22,r17,34dc <___svfprintf_internal_r+0x1734>
    2f90:	010000b4 	movhi	r4,2
    2f94:	2129d984 	addi	r4,r4,-22682
    2f98:	d9002b15 	stw	r4,172(sp)
    2f9c:	070001c4 	movi	fp,7
    2fa0:	dd002c17 	ldw	r20,176(sp)
    2fa4:	00000306 	br	2fb4 <___svfprintf_internal_r+0x120c>
    2fa8:	42000204 	addi	r8,r8,8
    2fac:	8c7ffc04 	addi	r17,r17,-16
    2fb0:	b4414d0e 	bge	r22,r17,34e8 <___svfprintf_internal_r+0x1740>
    2fb4:	18c00404 	addi	r3,r3,16
    2fb8:	10800044 	addi	r2,r2,1
    2fbc:	45400015 	stw	r21,0(r8)
    2fc0:	45800115 	stw	r22,4(r8)
    2fc4:	d8c02015 	stw	r3,128(sp)
    2fc8:	d8801f15 	stw	r2,124(sp)
    2fcc:	e0bff60e 	bge	fp,r2,2fa8 <___svfprintf_internal_r+0x1200>
    2fd0:	d9801e04 	addi	r6,sp,120
    2fd4:	a00b883a 	mov	r5,r20
    2fd8:	9809883a 	mov	r4,r19
    2fdc:	00075540 	call	7554 <__ssprint_r>
    2fe0:	103c561e 	bne	r2,zero,213c <___svfprintf_internal_r+0x394>
    2fe4:	d8c02017 	ldw	r3,128(sp)
    2fe8:	d8801f17 	ldw	r2,124(sp)
    2fec:	da000404 	addi	r8,sp,16
    2ff0:	003fee06 	br	2fac <___svfprintf_internal_r+0x1204>
    2ff4:	d9402c17 	ldw	r5,176(sp)
    2ff8:	d9801e04 	addi	r6,sp,120
    2ffc:	9809883a 	mov	r4,r19
    3000:	00075540 	call	7554 <__ssprint_r>
    3004:	103c4d1e 	bne	r2,zero,213c <___svfprintf_internal_r+0x394>
    3008:	d8c02017 	ldw	r3,128(sp)
    300c:	df002787 	ldb	fp,158(sp)
    3010:	da000404 	addi	r8,sp,16
    3014:	003d5a06 	br	2580 <___svfprintf_internal_r+0x7d8>
    3018:	9080040c 	andi	r2,r18,16
    301c:	10005c26 	beq	r2,zero,3190 <___svfprintf_internal_r+0x13e8>
    3020:	d9402d17 	ldw	r5,180(sp)
    3024:	d8c02917 	ldw	r3,164(sp)
    3028:	d8002785 	stb	zero,158(sp)
    302c:	28800104 	addi	r2,r5,4
    3030:	2d000017 	ldw	r20,0(r5)
    3034:	002d883a 	mov	r22,zero
    3038:	18005e16 	blt	r3,zero,31b4 <___svfprintf_internal_r+0x140c>
    303c:	00ffdfc4 	movi	r3,-129
    3040:	d8802d15 	stw	r2,180(sp)
    3044:	90e4703a 	and	r18,r18,r3
    3048:	0039883a 	mov	fp,zero
    304c:	a03dfe26 	beq	r20,zero,2848 <___svfprintf_internal_r+0xaa0>
    3050:	00800244 	movi	r2,9
    3054:	153cb336 	bltu	r2,r20,2324 <___svfprintf_internal_r+0x57c>
    3058:	a5000c04 	addi	r20,r20,48
    305c:	dc001dc4 	addi	r16,sp,119
    3060:	dd001dc5 	stb	r20,119(sp)
    3064:	d8c02817 	ldw	r3,160(sp)
    3068:	1c07c83a 	sub	r3,r3,r16
    306c:	d8c02e15 	stw	r3,184(sp)
    3070:	003cf506 	br	2448 <___svfprintf_internal_r+0x6a0>
    3074:	d8803317 	ldw	r2,204(sp)
    3078:	143fffc4 	addi	r16,r2,-1
    307c:	043f560e 	bge	zero,r16,2dd8 <___svfprintf_internal_r+0x1030>
    3080:	07000404 	movi	fp,16
    3084:	e403530e 	bge	fp,r16,3dd4 <___svfprintf_internal_r+0x202c>
    3088:	014000b4 	movhi	r5,2
    308c:	2969d984 	addi	r5,r5,-22682
    3090:	d9402b15 	stw	r5,172(sp)
    3094:	01c001c4 	movi	r7,7
    3098:	dd002c17 	ldw	r20,176(sp)
    309c:	00000306 	br	30ac <___svfprintf_internal_r+0x1304>
    30a0:	843ffc04 	addi	r16,r16,-16
    30a4:	b5800204 	addi	r22,r22,8
    30a8:	e400130e 	bge	fp,r16,30f8 <___svfprintf_internal_r+0x1350>
    30ac:	18c00404 	addi	r3,r3,16
    30b0:	8c400044 	addi	r17,r17,1
    30b4:	b5400015 	stw	r21,0(r22)
    30b8:	b7000115 	stw	fp,4(r22)
    30bc:	d8c02015 	stw	r3,128(sp)
    30c0:	dc401f15 	stw	r17,124(sp)
    30c4:	3c7ff60e 	bge	r7,r17,30a0 <___svfprintf_internal_r+0x12f8>
    30c8:	d9801e04 	addi	r6,sp,120
    30cc:	a00b883a 	mov	r5,r20
    30d0:	9809883a 	mov	r4,r19
    30d4:	d9c03d15 	stw	r7,244(sp)
    30d8:	00075540 	call	7554 <__ssprint_r>
    30dc:	d9c03d17 	ldw	r7,244(sp)
    30e0:	103c161e 	bne	r2,zero,213c <___svfprintf_internal_r+0x394>
    30e4:	843ffc04 	addi	r16,r16,-16
    30e8:	d8c02017 	ldw	r3,128(sp)
    30ec:	dc401f17 	ldw	r17,124(sp)
    30f0:	dd800404 	addi	r22,sp,16
    30f4:	e43fed16 	blt	fp,r16,30ac <___svfprintf_internal_r+0x1304>
    30f8:	d8802b17 	ldw	r2,172(sp)
    30fc:	1c07883a 	add	r3,r3,r16
    3100:	8c400044 	addi	r17,r17,1
    3104:	b0800015 	stw	r2,0(r22)
    3108:	b4000115 	stw	r16,4(r22)
    310c:	d8c02015 	stw	r3,128(sp)
    3110:	dc401f15 	stw	r17,124(sp)
    3114:	008001c4 	movi	r2,7
    3118:	147f2e0e 	bge	r2,r17,2dd4 <___svfprintf_internal_r+0x102c>
    311c:	d9402c17 	ldw	r5,176(sp)
    3120:	d9801e04 	addi	r6,sp,120
    3124:	9809883a 	mov	r4,r19
    3128:	00075540 	call	7554 <__ssprint_r>
    312c:	103c031e 	bne	r2,zero,213c <___svfprintf_internal_r+0x394>
    3130:	d8c02017 	ldw	r3,128(sp)
    3134:	dc401f17 	ldw	r17,124(sp)
    3138:	dd800404 	addi	r22,sp,16
    313c:	003f2606 	br	2dd8 <___svfprintf_internal_r+0x1030>
    3140:	9080040c 	andi	r2,r18,16
    3144:	1000c326 	beq	r2,zero,3454 <___svfprintf_internal_r+0x16ac>
    3148:	d8802d17 	ldw	r2,180(sp)
    314c:	15000017 	ldw	r20,0(r2)
    3150:	10800104 	addi	r2,r2,4
    3154:	d8802d15 	stw	r2,180(sp)
    3158:	a02dd7fa 	srai	r22,r20,31
    315c:	b005883a 	mov	r2,r22
    3160:	103c680e 	bge	r2,zero,2304 <___svfprintf_internal_r+0x55c>
    3164:	0529c83a 	sub	r20,zero,r20
    3168:	a004c03a 	cmpne	r2,r20,zero
    316c:	05adc83a 	sub	r22,zero,r22
    3170:	b0adc83a 	sub	r22,r22,r2
    3174:	d8802917 	ldw	r2,164(sp)
    3178:	07000b44 	movi	fp,45
    317c:	df002785 	stb	fp,158(sp)
    3180:	10022e16 	blt	r2,zero,3a3c <___svfprintf_internal_r+0x1c94>
    3184:	00bfdfc4 	movi	r2,-129
    3188:	90a4703a 	and	r18,r18,r2
    318c:	003c6406 	br	2320 <___svfprintf_internal_r+0x578>
    3190:	9080100c 	andi	r2,r18,64
    3194:	d8002785 	stb	zero,158(sp)
    3198:	10012526 	beq	r2,zero,3630 <___svfprintf_internal_r+0x1888>
    319c:	d9002d17 	ldw	r4,180(sp)
    31a0:	d9402917 	ldw	r5,164(sp)
    31a4:	002d883a 	mov	r22,zero
    31a8:	20800104 	addi	r2,r4,4
    31ac:	2500000b 	ldhu	r20,0(r4)
    31b0:	283fa20e 	bge	r5,zero,303c <___svfprintf_internal_r+0x1294>
    31b4:	d8802d15 	stw	r2,180(sp)
    31b8:	0039883a 	mov	fp,zero
    31bc:	a584b03a 	or	r2,r20,r22
    31c0:	103c571e 	bne	r2,zero,2320 <___svfprintf_internal_r+0x578>
    31c4:	00800044 	movi	r2,1
    31c8:	003e5006 	br	2b0c <___svfprintf_internal_r+0xd64>
    31cc:	d9402c17 	ldw	r5,176(sp)
    31d0:	d9801e04 	addi	r6,sp,120
    31d4:	9809883a 	mov	r4,r19
    31d8:	00075540 	call	7554 <__ssprint_r>
    31dc:	103bd71e 	bne	r2,zero,213c <___svfprintf_internal_r+0x394>
    31e0:	d8c02017 	ldw	r3,128(sp)
    31e4:	da000404 	addi	r8,sp,16
    31e8:	d9003217 	ldw	r4,200(sp)
    31ec:	d8802617 	ldw	r2,152(sp)
    31f0:	d9403317 	ldw	r5,204(sp)
    31f4:	8123883a 	add	r17,r16,r4
    31f8:	11400216 	blt	r2,r5,3204 <___svfprintf_internal_r+0x145c>
    31fc:	9100004c 	andi	r4,r18,1
    3200:	20000d26 	beq	r4,zero,3238 <___svfprintf_internal_r+0x1490>
    3204:	d9003817 	ldw	r4,224(sp)
    3208:	d9403417 	ldw	r5,208(sp)
    320c:	1907883a 	add	r3,r3,r4
    3210:	d9001f17 	ldw	r4,124(sp)
    3214:	41400015 	stw	r5,0(r8)
    3218:	d9403817 	ldw	r5,224(sp)
    321c:	21000044 	addi	r4,r4,1
    3220:	d8c02015 	stw	r3,128(sp)
    3224:	41400115 	stw	r5,4(r8)
    3228:	d9001f15 	stw	r4,124(sp)
    322c:	014001c4 	movi	r5,7
    3230:	2901dc16 	blt	r5,r4,39a4 <___svfprintf_internal_r+0x1bfc>
    3234:	42000204 	addi	r8,r8,8
    3238:	d9003317 	ldw	r4,204(sp)
    323c:	8121883a 	add	r16,r16,r4
    3240:	2085c83a 	sub	r2,r4,r2
    3244:	8461c83a 	sub	r16,r16,r17
    3248:	1400010e 	bge	r2,r16,3250 <___svfprintf_internal_r+0x14a8>
    324c:	1021883a 	mov	r16,r2
    3250:	04000a0e 	bge	zero,r16,327c <___svfprintf_internal_r+0x14d4>
    3254:	d9001f17 	ldw	r4,124(sp)
    3258:	1c07883a 	add	r3,r3,r16
    325c:	44400015 	stw	r17,0(r8)
    3260:	21000044 	addi	r4,r4,1
    3264:	44000115 	stw	r16,4(r8)
    3268:	d8c02015 	stw	r3,128(sp)
    326c:	d9001f15 	stw	r4,124(sp)
    3270:	014001c4 	movi	r5,7
    3274:	2901e616 	blt	r5,r4,3a10 <___svfprintf_internal_r+0x1c68>
    3278:	42000204 	addi	r8,r8,8
    327c:	8001f616 	blt	r16,zero,3a58 <___svfprintf_internal_r+0x1cb0>
    3280:	1421c83a 	sub	r16,r2,r16
    3284:	043d1c0e 	bge	zero,r16,26f8 <___svfprintf_internal_r+0x950>
    3288:	04400404 	movi	r17,16
    328c:	d8801f17 	ldw	r2,124(sp)
    3290:	8c3edd0e 	bge	r17,r16,2e08 <___svfprintf_internal_r+0x1060>
    3294:	014000b4 	movhi	r5,2
    3298:	2969d984 	addi	r5,r5,-22682
    329c:	d9402b15 	stw	r5,172(sp)
    32a0:	058001c4 	movi	r22,7
    32a4:	dd002c17 	ldw	r20,176(sp)
    32a8:	00000306 	br	32b8 <___svfprintf_internal_r+0x1510>
    32ac:	42000204 	addi	r8,r8,8
    32b0:	843ffc04 	addi	r16,r16,-16
    32b4:	8c3ed70e 	bge	r17,r16,2e14 <___svfprintf_internal_r+0x106c>
    32b8:	18c00404 	addi	r3,r3,16
    32bc:	10800044 	addi	r2,r2,1
    32c0:	45400015 	stw	r21,0(r8)
    32c4:	44400115 	stw	r17,4(r8)
    32c8:	d8c02015 	stw	r3,128(sp)
    32cc:	d8801f15 	stw	r2,124(sp)
    32d0:	b0bff60e 	bge	r22,r2,32ac <___svfprintf_internal_r+0x1504>
    32d4:	d9801e04 	addi	r6,sp,120
    32d8:	a00b883a 	mov	r5,r20
    32dc:	9809883a 	mov	r4,r19
    32e0:	00075540 	call	7554 <__ssprint_r>
    32e4:	103b951e 	bne	r2,zero,213c <___svfprintf_internal_r+0x394>
    32e8:	d8c02017 	ldw	r3,128(sp)
    32ec:	d8801f17 	ldw	r2,124(sp)
    32f0:	da000404 	addi	r8,sp,16
    32f4:	003fee06 	br	32b0 <___svfprintf_internal_r+0x1508>
    32f8:	9088703a 	and	r4,r18,r2
    32fc:	203e8d1e 	bne	r4,zero,2d34 <___svfprintf_internal_r+0xf8c>
    3300:	dc401f17 	ldw	r17,124(sp)
    3304:	40800115 	stw	r2,4(r8)
    3308:	44000015 	stw	r16,0(r8)
    330c:	8c400044 	addi	r17,r17,1
    3310:	d8c02015 	stw	r3,128(sp)
    3314:	dc401f15 	stw	r17,124(sp)
    3318:	008001c4 	movi	r2,7
    331c:	147f7f16 	blt	r2,r17,311c <___svfprintf_internal_r+0x1374>
    3320:	45800204 	addi	r22,r8,8
    3324:	003eac06 	br	2dd8 <___svfprintf_internal_r+0x1030>
    3328:	d9402c17 	ldw	r5,176(sp)
    332c:	d9801e04 	addi	r6,sp,120
    3330:	9809883a 	mov	r4,r19
    3334:	00075540 	call	7554 <__ssprint_r>
    3338:	103b801e 	bne	r2,zero,213c <___svfprintf_internal_r+0x394>
    333c:	d8c02017 	ldw	r3,128(sp)
    3340:	dc401f17 	ldw	r17,124(sp)
    3344:	da000404 	addi	r8,sp,16
    3348:	003e8406 	br	2d5c <___svfprintf_internal_r+0xfb4>
    334c:	d9402c17 	ldw	r5,176(sp)
    3350:	d9801e04 	addi	r6,sp,120
    3354:	9809883a 	mov	r4,r19
    3358:	00075540 	call	7554 <__ssprint_r>
    335c:	103b771e 	bne	r2,zero,213c <___svfprintf_internal_r+0x394>
    3360:	d8c02017 	ldw	r3,128(sp)
    3364:	dc401f17 	ldw	r17,124(sp)
    3368:	dd800404 	addi	r22,sp,16
    336c:	003e8606 	br	2d88 <___svfprintf_internal_r+0xfe0>
    3370:	0029883a 	mov	r20,zero
    3374:	a5000c04 	addi	r20,r20,48
    3378:	dc001dc4 	addi	r16,sp,119
    337c:	dd001dc5 	stb	r20,119(sp)
    3380:	003f3806 	br	3064 <___svfprintf_internal_r+0x12bc>
    3384:	d9402c17 	ldw	r5,176(sp)
    3388:	d9801e04 	addi	r6,sp,120
    338c:	9809883a 	mov	r4,r19
    3390:	00075540 	call	7554 <__ssprint_r>
    3394:	103b691e 	bne	r2,zero,213c <___svfprintf_internal_r+0x394>
    3398:	d8c02017 	ldw	r3,128(sp)
    339c:	da000404 	addi	r8,sp,16
    33a0:	003c9506 	br	25f8 <___svfprintf_internal_r+0x850>
    33a4:	d9003617 	ldw	r4,216(sp)
    33a8:	d9403717 	ldw	r5,220(sp)
    33ac:	da003e15 	stw	r8,248(sp)
    33b0:	00073180 	call	7318 <__fpclassifyd>
    33b4:	da003e17 	ldw	r8,248(sp)
    33b8:	1000bd1e 	bne	r2,zero,36b0 <___svfprintf_internal_r+0x1908>
    33bc:	008011c4 	movi	r2,71
    33c0:	14411e0e 	bge	r2,r17,383c <___svfprintf_internal_r+0x1a94>
    33c4:	040000b4 	movhi	r16,2
    33c8:	8429cc04 	addi	r16,r16,-22736
    33cc:	00c000c4 	movi	r3,3
    33d0:	00bfdfc4 	movi	r2,-129
    33d4:	d8c02a15 	stw	r3,168(sp)
    33d8:	90a4703a 	and	r18,r18,r2
    33dc:	df002783 	ldbu	fp,158(sp)
    33e0:	d8c02e15 	stw	r3,184(sp)
    33e4:	d8002915 	stw	zero,164(sp)
    33e8:	d8003215 	stw	zero,200(sp)
    33ec:	003c1c06 	br	2460 <___svfprintf_internal_r+0x6b8>
    33f0:	9080100c 	andi	r2,r18,64
    33f4:	d8002785 	stb	zero,158(sp)
    33f8:	10009426 	beq	r2,zero,364c <___svfprintf_internal_r+0x18a4>
    33fc:	d8c02d17 	ldw	r3,180(sp)
    3400:	d9002917 	ldw	r4,164(sp)
    3404:	002d883a 	mov	r22,zero
    3408:	18800104 	addi	r2,r3,4
    340c:	1d00000b 	ldhu	r20,0(r3)
    3410:	203ec10e 	bge	r4,zero,2f18 <___svfprintf_internal_r+0x1170>
    3414:	a586b03a 	or	r3,r20,r22
    3418:	d8802d15 	stw	r2,180(sp)
    341c:	183ec21e 	bne	r3,zero,2f28 <___svfprintf_internal_r+0x1180>
    3420:	0039883a 	mov	fp,zero
    3424:	0005883a 	mov	r2,zero
    3428:	003db806 	br	2b0c <___svfprintf_internal_r+0xd64>
    342c:	d8802d17 	ldw	r2,180(sp)
    3430:	d8c02d17 	ldw	r3,180(sp)
    3434:	d9002d17 	ldw	r4,180(sp)
    3438:	10800017 	ldw	r2,0(r2)
    343c:	18c00117 	ldw	r3,4(r3)
    3440:	21000204 	addi	r4,r4,8
    3444:	d8803615 	stw	r2,216(sp)
    3448:	d8c03715 	stw	r3,220(sp)
    344c:	d9002d15 	stw	r4,180(sp)
    3450:	003b8206 	br	225c <___svfprintf_internal_r+0x4b4>
    3454:	9080100c 	andi	r2,r18,64
    3458:	10010726 	beq	r2,zero,3878 <___svfprintf_internal_r+0x1ad0>
    345c:	d8c02d17 	ldw	r3,180(sp)
    3460:	1d00000f 	ldh	r20,0(r3)
    3464:	18c00104 	addi	r3,r3,4
    3468:	d8c02d15 	stw	r3,180(sp)
    346c:	a02dd7fa 	srai	r22,r20,31
    3470:	b005883a 	mov	r2,r22
    3474:	003ba206 	br	2300 <___svfprintf_internal_r+0x558>
    3478:	9080100c 	andi	r2,r18,64
    347c:	10010526 	beq	r2,zero,3894 <___svfprintf_internal_r+0x1aec>
    3480:	d9002d17 	ldw	r4,180(sp)
    3484:	002d883a 	mov	r22,zero
    3488:	2500000b 	ldhu	r20,0(r4)
    348c:	21000104 	addi	r4,r4,4
    3490:	d9002d15 	stw	r4,180(sp)
    3494:	003cfe06 	br	2890 <___svfprintf_internal_r+0xae8>
    3498:	bc400007 	ldb	r17,0(r23)
    349c:	003a9606 	br	1ef8 <___svfprintf_internal_r+0x150>
    34a0:	9080040c 	andi	r2,r18,16
    34a4:	10010126 	beq	r2,zero,38ac <___svfprintf_internal_r+0x1b04>
    34a8:	d9402d17 	ldw	r5,180(sp)
    34ac:	d8c02f17 	ldw	r3,188(sp)
    34b0:	28800017 	ldw	r2,0(r5)
    34b4:	29400104 	addi	r5,r5,4
    34b8:	d9402d15 	stw	r5,180(sp)
    34bc:	10c00015 	stw	r3,0(r2)
    34c0:	003a6406 	br	1e54 <___svfprintf_internal_r+0xac>
    34c4:	d9002917 	ldw	r4,164(sp)
    34c8:	d8002785 	stb	zero,158(sp)
    34cc:	203d8d16 	blt	r4,zero,2b04 <___svfprintf_internal_r+0xd5c>
    34d0:	00bfdfc4 	movi	r2,-129
    34d4:	90a4703a 	and	r18,r18,r2
    34d8:	003b0506 	br	20f0 <___svfprintf_internal_r+0x348>
    34dc:	014000b4 	movhi	r5,2
    34e0:	2969d984 	addi	r5,r5,-22682
    34e4:	d9402b15 	stw	r5,172(sp)
    34e8:	d9402b17 	ldw	r5,172(sp)
    34ec:	1c47883a 	add	r3,r3,r17
    34f0:	10800044 	addi	r2,r2,1
    34f4:	41400015 	stw	r5,0(r8)
    34f8:	44400115 	stw	r17,4(r8)
    34fc:	d8c02015 	stw	r3,128(sp)
    3500:	d8801f15 	stw	r2,124(sp)
    3504:	010001c4 	movi	r4,7
    3508:	20bf3016 	blt	r4,r2,31cc <___svfprintf_internal_r+0x1424>
    350c:	42000204 	addi	r8,r8,8
    3510:	003f3506 	br	31e8 <___svfprintf_internal_r+0x1440>
    3514:	010000b4 	movhi	r4,2
    3518:	2129d984 	addi	r4,r4,-22682
    351c:	d9002b15 	stw	r4,172(sp)
    3520:	003c5e06 	br	269c <___svfprintf_internal_r+0x8f4>
    3524:	d9402c17 	ldw	r5,176(sp)
    3528:	d9801e04 	addi	r6,sp,120
    352c:	9809883a 	mov	r4,r19
    3530:	00075540 	call	7554 <__ssprint_r>
    3534:	103b011e 	bne	r2,zero,213c <___svfprintf_internal_r+0x394>
    3538:	d8c02017 	ldw	r3,128(sp)
    353c:	da000404 	addi	r8,sp,16
    3540:	003d9306 	br	2b90 <___svfprintf_internal_r+0xde8>
    3544:	d8801f17 	ldw	r2,124(sp)
    3548:	014000b4 	movhi	r5,2
    354c:	01000044 	movi	r4,1
    3550:	18c00044 	addi	r3,r3,1
    3554:	10800044 	addi	r2,r2,1
    3558:	2969d904 	addi	r5,r5,-22684
    355c:	41000115 	stw	r4,4(r8)
    3560:	41400015 	stw	r5,0(r8)
    3564:	d8c02015 	stw	r3,128(sp)
    3568:	d8801f15 	stw	r2,124(sp)
    356c:	010001c4 	movi	r4,7
    3570:	2080b516 	blt	r4,r2,3848 <___svfprintf_internal_r+0x1aa0>
    3574:	42000204 	addi	r8,r8,8
    3578:	8800041e 	bne	r17,zero,358c <___svfprintf_internal_r+0x17e4>
    357c:	d8803317 	ldw	r2,204(sp)
    3580:	1000021e 	bne	r2,zero,358c <___svfprintf_internal_r+0x17e4>
    3584:	9080004c 	andi	r2,r18,1
    3588:	103c5b26 	beq	r2,zero,26f8 <___svfprintf_internal_r+0x950>
    358c:	d9003817 	ldw	r4,224(sp)
    3590:	d8801f17 	ldw	r2,124(sp)
    3594:	d9403417 	ldw	r5,208(sp)
    3598:	20c7883a 	add	r3,r4,r3
    359c:	10800044 	addi	r2,r2,1
    35a0:	41000115 	stw	r4,4(r8)
    35a4:	41400015 	stw	r5,0(r8)
    35a8:	d8c02015 	stw	r3,128(sp)
    35ac:	d8801f15 	stw	r2,124(sp)
    35b0:	010001c4 	movi	r4,7
    35b4:	20818016 	blt	r4,r2,3bb8 <___svfprintf_internal_r+0x1e10>
    35b8:	42000204 	addi	r8,r8,8
    35bc:	0463c83a 	sub	r17,zero,r17
    35c0:	0440cb0e 	bge	zero,r17,38f0 <___svfprintf_internal_r+0x1b48>
    35c4:	05800404 	movi	r22,16
    35c8:	b440e80e 	bge	r22,r17,396c <___svfprintf_internal_r+0x1bc4>
    35cc:	014000b4 	movhi	r5,2
    35d0:	2969d984 	addi	r5,r5,-22682
    35d4:	d9402b15 	stw	r5,172(sp)
    35d8:	070001c4 	movi	fp,7
    35dc:	dd002c17 	ldw	r20,176(sp)
    35e0:	00000306 	br	35f0 <___svfprintf_internal_r+0x1848>
    35e4:	42000204 	addi	r8,r8,8
    35e8:	8c7ffc04 	addi	r17,r17,-16
    35ec:	b440e20e 	bge	r22,r17,3978 <___svfprintf_internal_r+0x1bd0>
    35f0:	18c00404 	addi	r3,r3,16
    35f4:	10800044 	addi	r2,r2,1
    35f8:	45400015 	stw	r21,0(r8)
    35fc:	45800115 	stw	r22,4(r8)
    3600:	d8c02015 	stw	r3,128(sp)
    3604:	d8801f15 	stw	r2,124(sp)
    3608:	e0bff60e 	bge	fp,r2,35e4 <___svfprintf_internal_r+0x183c>
    360c:	d9801e04 	addi	r6,sp,120
    3610:	a00b883a 	mov	r5,r20
    3614:	9809883a 	mov	r4,r19
    3618:	00075540 	call	7554 <__ssprint_r>
    361c:	103ac71e 	bne	r2,zero,213c <___svfprintf_internal_r+0x394>
    3620:	d8c02017 	ldw	r3,128(sp)
    3624:	d8801f17 	ldw	r2,124(sp)
    3628:	da000404 	addi	r8,sp,16
    362c:	003fee06 	br	35e8 <___svfprintf_internal_r+0x1840>
    3630:	d8c02d17 	ldw	r3,180(sp)
    3634:	d9002917 	ldw	r4,164(sp)
    3638:	002d883a 	mov	r22,zero
    363c:	18800104 	addi	r2,r3,4
    3640:	1d000017 	ldw	r20,0(r3)
    3644:	203e7d0e 	bge	r4,zero,303c <___svfprintf_internal_r+0x1294>
    3648:	003eda06 	br	31b4 <___svfprintf_internal_r+0x140c>
    364c:	d9402d17 	ldw	r5,180(sp)
    3650:	d8c02917 	ldw	r3,164(sp)
    3654:	002d883a 	mov	r22,zero
    3658:	28800104 	addi	r2,r5,4
    365c:	2d000017 	ldw	r20,0(r5)
    3660:	183e2d0e 	bge	r3,zero,2f18 <___svfprintf_internal_r+0x1170>
    3664:	003f6b06 	br	3414 <___svfprintf_internal_r+0x166c>
    3668:	d8c02d15 	stw	r3,180(sp)
    366c:	0039883a 	mov	fp,zero
    3670:	003ed206 	br	31bc <___svfprintf_internal_r+0x1414>
    3674:	bc400043 	ldbu	r17,1(r23)
    3678:	94800814 	ori	r18,r18,32
    367c:	bdc00044 	addi	r23,r23,1
    3680:	8c403fcc 	andi	r17,r17,255
    3684:	8c40201c 	xori	r17,r17,128
    3688:	8c7fe004 	addi	r17,r17,-128
    368c:	003a1a06 	br	1ef8 <___svfprintf_internal_r+0x150>
    3690:	d9402c17 	ldw	r5,176(sp)
    3694:	d9801e04 	addi	r6,sp,120
    3698:	9809883a 	mov	r4,r19
    369c:	00075540 	call	7554 <__ssprint_r>
    36a0:	103aa61e 	bne	r2,zero,213c <___svfprintf_internal_r+0x394>
    36a4:	d8c02017 	ldw	r3,128(sp)
    36a8:	da000404 	addi	r8,sp,16
    36ac:	003d4a06 	br	2bd8 <___svfprintf_internal_r+0xe30>
    36b0:	d9002917 	ldw	r4,164(sp)
    36b4:	05bff7c4 	movi	r22,-33
    36b8:	00bfffc4 	movi	r2,-1
    36bc:	8dac703a 	and	r22,r17,r22
    36c0:	20806a26 	beq	r4,r2,386c <___svfprintf_internal_r+0x1ac4>
    36c4:	008011c4 	movi	r2,71
    36c8:	b0813726 	beq	r22,r2,3ba8 <___svfprintf_internal_r+0x1e00>
    36cc:	d9003717 	ldw	r4,220(sp)
    36d0:	90c04014 	ori	r3,r18,256
    36d4:	d8c02b15 	stw	r3,172(sp)
    36d8:	20015d16 	blt	r4,zero,3c50 <___svfprintf_internal_r+0x1ea8>
    36dc:	dd003717 	ldw	r20,220(sp)
    36e0:	d8002a05 	stb	zero,168(sp)
    36e4:	00801984 	movi	r2,102
    36e8:	88814026 	beq	r17,r2,3bec <___svfprintf_internal_r+0x1e44>
    36ec:	00801184 	movi	r2,70
    36f0:	88817126 	beq	r17,r2,3cb8 <___svfprintf_internal_r+0x1f10>
    36f4:	00801144 	movi	r2,69
    36f8:	b0816226 	beq	r22,r2,3c84 <___svfprintf_internal_r+0x1edc>
    36fc:	d8c02917 	ldw	r3,164(sp)
    3700:	d8802104 	addi	r2,sp,132
    3704:	d8800315 	stw	r2,12(sp)
    3708:	d9403617 	ldw	r5,216(sp)
    370c:	d8802504 	addi	r2,sp,148
    3710:	d8800215 	stw	r2,8(sp)
    3714:	d8802604 	addi	r2,sp,152
    3718:	d8c00015 	stw	r3,0(sp)
    371c:	d8800115 	stw	r2,4(sp)
    3720:	01c00084 	movi	r7,2
    3724:	a00d883a 	mov	r6,r20
    3728:	9809883a 	mov	r4,r19
    372c:	d8c03d15 	stw	r3,244(sp)
    3730:	da003e15 	stw	r8,248(sp)
    3734:	00041800 	call	4180 <_dtoa_r>
    3738:	1021883a 	mov	r16,r2
    373c:	008019c4 	movi	r2,103
    3740:	d8c03d17 	ldw	r3,244(sp)
    3744:	da003e17 	ldw	r8,248(sp)
    3748:	8880e726 	beq	r17,r2,3ae8 <___svfprintf_internal_r+0x1d40>
    374c:	008011c4 	movi	r2,71
    3750:	8880d426 	beq	r17,r2,3aa4 <___svfprintf_internal_r+0x1cfc>
    3754:	80f9883a 	add	fp,r16,r3
    3758:	d9003617 	ldw	r4,216(sp)
    375c:	000d883a 	mov	r6,zero
    3760:	000f883a 	mov	r7,zero
    3764:	a00b883a 	mov	r5,r20
    3768:	da003e15 	stw	r8,248(sp)
    376c:	000b4380 	call	b438 <__eqdf2>
    3770:	da003e17 	ldw	r8,248(sp)
    3774:	1000e426 	beq	r2,zero,3b08 <___svfprintf_internal_r+0x1d60>
    3778:	d8802117 	ldw	r2,132(sp)
    377c:	1700062e 	bgeu	r2,fp,3798 <___svfprintf_internal_r+0x19f0>
    3780:	01000c04 	movi	r4,48
    3784:	10c00044 	addi	r3,r2,1
    3788:	d8c02115 	stw	r3,132(sp)
    378c:	11000005 	stb	r4,0(r2)
    3790:	d8802117 	ldw	r2,132(sp)
    3794:	173ffb36 	bltu	r2,fp,3784 <___svfprintf_internal_r+0x19dc>
    3798:	1405c83a 	sub	r2,r2,r16
    379c:	d8803315 	stw	r2,204(sp)
    37a0:	008011c4 	movi	r2,71
    37a4:	b080c526 	beq	r22,r2,3abc <___svfprintf_internal_r+0x1d14>
    37a8:	00801944 	movi	r2,101
    37ac:	1441d90e 	bge	r2,r17,3f14 <___svfprintf_internal_r+0x216c>
    37b0:	d8c02617 	ldw	r3,152(sp)
    37b4:	00801984 	movi	r2,102
    37b8:	d8c03215 	stw	r3,200(sp)
    37bc:	88813426 	beq	r17,r2,3c90 <___svfprintf_internal_r+0x1ee8>
    37c0:	d8c03217 	ldw	r3,200(sp)
    37c4:	d9003317 	ldw	r4,204(sp)
    37c8:	19012516 	blt	r3,r4,3c60 <___svfprintf_internal_r+0x1eb8>
    37cc:	9480004c 	andi	r18,r18,1
    37d0:	9001841e 	bne	r18,zero,3de4 <___svfprintf_internal_r+0x203c>
    37d4:	1805883a 	mov	r2,r3
    37d8:	1801cc16 	blt	r3,zero,3f0c <___svfprintf_internal_r+0x2164>
    37dc:	d8c03217 	ldw	r3,200(sp)
    37e0:	044019c4 	movi	r17,103
    37e4:	d8c02e15 	stw	r3,184(sp)
    37e8:	df002a07 	ldb	fp,168(sp)
    37ec:	e000a61e 	bne	fp,zero,3a88 <___svfprintf_internal_r+0x1ce0>
    37f0:	df002783 	ldbu	fp,158(sp)
    37f4:	d8802a15 	stw	r2,168(sp)
    37f8:	dc802b17 	ldw	r18,172(sp)
    37fc:	d8002915 	stw	zero,164(sp)
    3800:	003b1706 	br	2460 <___svfprintf_internal_r+0x6b8>
    3804:	040000b4 	movhi	r16,2
    3808:	8429c904 	addi	r16,r16,-22748
    380c:	003aa606 	br	22a8 <___svfprintf_internal_r+0x500>
    3810:	d9003917 	ldw	r4,228(sp)
    3814:	04001004 	movi	r16,64
    3818:	800b883a 	mov	r5,r16
    381c:	00058e40 	call	58e4 <_malloc_r>
    3820:	d9002c17 	ldw	r4,176(sp)
    3824:	20800015 	stw	r2,0(r4)
    3828:	20800415 	stw	r2,16(r4)
    382c:	1001cb26 	beq	r2,zero,3f5c <___svfprintf_internal_r+0x21b4>
    3830:	d8802c17 	ldw	r2,176(sp)
    3834:	14000515 	stw	r16,20(r2)
    3838:	00397606 	br	1e14 <___svfprintf_internal_r+0x6c>
    383c:	040000b4 	movhi	r16,2
    3840:	8429cb04 	addi	r16,r16,-22740
    3844:	003ee106 	br	33cc <___svfprintf_internal_r+0x1624>
    3848:	d9402c17 	ldw	r5,176(sp)
    384c:	d9801e04 	addi	r6,sp,120
    3850:	9809883a 	mov	r4,r19
    3854:	00075540 	call	7554 <__ssprint_r>
    3858:	103a381e 	bne	r2,zero,213c <___svfprintf_internal_r+0x394>
    385c:	dc402617 	ldw	r17,152(sp)
    3860:	d8c02017 	ldw	r3,128(sp)
    3864:	da000404 	addi	r8,sp,16
    3868:	003f4306 	br	3578 <___svfprintf_internal_r+0x17d0>
    386c:	01400184 	movi	r5,6
    3870:	d9402915 	stw	r5,164(sp)
    3874:	003f9506 	br	36cc <___svfprintf_internal_r+0x1924>
    3878:	d9002d17 	ldw	r4,180(sp)
    387c:	25000017 	ldw	r20,0(r4)
    3880:	21000104 	addi	r4,r4,4
    3884:	d9002d15 	stw	r4,180(sp)
    3888:	a02dd7fa 	srai	r22,r20,31
    388c:	b005883a 	mov	r2,r22
    3890:	003a9b06 	br	2300 <___svfprintf_internal_r+0x558>
    3894:	d9402d17 	ldw	r5,180(sp)
    3898:	002d883a 	mov	r22,zero
    389c:	2d000017 	ldw	r20,0(r5)
    38a0:	29400104 	addi	r5,r5,4
    38a4:	d9402d15 	stw	r5,180(sp)
    38a8:	003bf906 	br	2890 <___svfprintf_internal_r+0xae8>
    38ac:	9480100c 	andi	r18,r18,64
    38b0:	90006e26 	beq	r18,zero,3a6c <___svfprintf_internal_r+0x1cc4>
    38b4:	d9002d17 	ldw	r4,180(sp)
    38b8:	d9402f17 	ldw	r5,188(sp)
    38bc:	20800017 	ldw	r2,0(r4)
    38c0:	21000104 	addi	r4,r4,4
    38c4:	d9002d15 	stw	r4,180(sp)
    38c8:	1140000d 	sth	r5,0(r2)
    38cc:	00396106 	br	1e54 <___svfprintf_internal_r+0xac>
    38d0:	d9402c17 	ldw	r5,176(sp)
    38d4:	d9801e04 	addi	r6,sp,120
    38d8:	9809883a 	mov	r4,r19
    38dc:	00075540 	call	7554 <__ssprint_r>
    38e0:	103a161e 	bne	r2,zero,213c <___svfprintf_internal_r+0x394>
    38e4:	d8c02017 	ldw	r3,128(sp)
    38e8:	d8801f17 	ldw	r2,124(sp)
    38ec:	da000404 	addi	r8,sp,16
    38f0:	d9403317 	ldw	r5,204(sp)
    38f4:	10800044 	addi	r2,r2,1
    38f8:	44000015 	stw	r16,0(r8)
    38fc:	28c7883a 	add	r3,r5,r3
    3900:	003b7706 	br	26e0 <___svfprintf_internal_r+0x938>
    3904:	8009883a 	mov	r4,r16
    3908:	da003e15 	stw	r8,248(sp)
    390c:	00074bc0 	call	74bc <strlen>
    3910:	d8802e15 	stw	r2,184(sp)
    3914:	da003e17 	ldw	r8,248(sp)
    3918:	103c280e 	bge	r2,zero,29bc <___svfprintf_internal_r+0xc14>
    391c:	0005883a 	mov	r2,zero
    3920:	003c2606 	br	29bc <___svfprintf_internal_r+0xc14>
    3924:	00bfffc4 	movi	r2,-1
    3928:	003a0906 	br	2150 <___svfprintf_internal_r+0x3a8>
    392c:	010000b4 	movhi	r4,2
    3930:	2129dd84 	addi	r4,r4,-22666
    3934:	d9003515 	stw	r4,212(sp)
    3938:	003b0606 	br	2554 <___svfprintf_internal_r+0x7ac>
    393c:	013fffc4 	movi	r4,-1
    3940:	003a2706 	br	21e0 <___svfprintf_internal_r+0x438>
    3944:	d9402c17 	ldw	r5,176(sp)
    3948:	d9801e04 	addi	r6,sp,120
    394c:	9809883a 	mov	r4,r19
    3950:	00075540 	call	7554 <__ssprint_r>
    3954:	1039f91e 	bne	r2,zero,213c <___svfprintf_internal_r+0x394>
    3958:	d8c02017 	ldw	r3,128(sp)
    395c:	da000404 	addi	r8,sp,16
    3960:	003d8406 	br	2f74 <___svfprintf_internal_r+0x11cc>
    3964:	0023883a 	mov	r17,zero
    3968:	003d8306 	br	2f78 <___svfprintf_internal_r+0x11d0>
    396c:	010000b4 	movhi	r4,2
    3970:	2129d984 	addi	r4,r4,-22682
    3974:	d9002b15 	stw	r4,172(sp)
    3978:	d9002b17 	ldw	r4,172(sp)
    397c:	1c47883a 	add	r3,r3,r17
    3980:	10800044 	addi	r2,r2,1
    3984:	41000015 	stw	r4,0(r8)
    3988:	44400115 	stw	r17,4(r8)
    398c:	d8c02015 	stw	r3,128(sp)
    3990:	d8801f15 	stw	r2,124(sp)
    3994:	010001c4 	movi	r4,7
    3998:	20bfcd16 	blt	r4,r2,38d0 <___svfprintf_internal_r+0x1b28>
    399c:	42000204 	addi	r8,r8,8
    39a0:	003fd306 	br	38f0 <___svfprintf_internal_r+0x1b48>
    39a4:	d9402c17 	ldw	r5,176(sp)
    39a8:	d9801e04 	addi	r6,sp,120
    39ac:	9809883a 	mov	r4,r19
    39b0:	00075540 	call	7554 <__ssprint_r>
    39b4:	1039e11e 	bne	r2,zero,213c <___svfprintf_internal_r+0x394>
    39b8:	d8802617 	ldw	r2,152(sp)
    39bc:	d8c02017 	ldw	r3,128(sp)
    39c0:	da000404 	addi	r8,sp,16
    39c4:	003e1c06 	br	3238 <___svfprintf_internal_r+0x1490>
    39c8:	d8802917 	ldw	r2,164(sp)
    39cc:	00c00184 	movi	r3,6
    39d0:	1880012e 	bgeu	r3,r2,39d8 <___svfprintf_internal_r+0x1c30>
    39d4:	1805883a 	mov	r2,r3
    39d8:	d8802e15 	stw	r2,184(sp)
    39dc:	1000f316 	blt	r2,zero,3dac <___svfprintf_internal_r+0x2004>
    39e0:	040000b4 	movhi	r16,2
    39e4:	d8802a15 	stw	r2,168(sp)
    39e8:	dd002d15 	stw	r20,180(sp)
    39ec:	d8002915 	stw	zero,164(sp)
    39f0:	d8003215 	stw	zero,200(sp)
    39f4:	8429d704 	addi	r16,r16,-22692
    39f8:	0039883a 	mov	fp,zero
    39fc:	003a9f06 	br	247c <___svfprintf_internal_r+0x6d4>
    3a00:	010000b4 	movhi	r4,2
    3a04:	2129dd84 	addi	r4,r4,-22666
    3a08:	d9003515 	stw	r4,212(sp)
    3a0c:	003b5f06 	br	278c <___svfprintf_internal_r+0x9e4>
    3a10:	d9402c17 	ldw	r5,176(sp)
    3a14:	d9801e04 	addi	r6,sp,120
    3a18:	9809883a 	mov	r4,r19
    3a1c:	00075540 	call	7554 <__ssprint_r>
    3a20:	1039c61e 	bne	r2,zero,213c <___svfprintf_internal_r+0x394>
    3a24:	d8802617 	ldw	r2,152(sp)
    3a28:	d9403317 	ldw	r5,204(sp)
    3a2c:	d8c02017 	ldw	r3,128(sp)
    3a30:	da000404 	addi	r8,sp,16
    3a34:	2885c83a 	sub	r2,r5,r2
    3a38:	003e1006 	br	327c <___svfprintf_internal_r+0x14d4>
    3a3c:	00800044 	movi	r2,1
    3a40:	10803fcc 	andi	r2,r2,255
    3a44:	00c00044 	movi	r3,1
    3a48:	10fa3526 	beq	r2,r3,2320 <___svfprintf_internal_r+0x578>
    3a4c:	00c00084 	movi	r3,2
    3a50:	10fb9e26 	beq	r2,r3,28cc <___svfprintf_internal_r+0xb24>
    3a54:	003a6406 	br	23e8 <___svfprintf_internal_r+0x640>
    3a58:	0021883a 	mov	r16,zero
    3a5c:	003e0806 	br	3280 <___svfprintf_internal_r+0x14d8>
    3a60:	07000b44 	movi	fp,45
    3a64:	df002785 	stb	fp,158(sp)
    3a68:	003a0b06 	br	2298 <___svfprintf_internal_r+0x4f0>
    3a6c:	d8c02d17 	ldw	r3,180(sp)
    3a70:	d9002f17 	ldw	r4,188(sp)
    3a74:	18800017 	ldw	r2,0(r3)
    3a78:	18c00104 	addi	r3,r3,4
    3a7c:	d8c02d15 	stw	r3,180(sp)
    3a80:	11000015 	stw	r4,0(r2)
    3a84:	0038f306 	br	1e54 <___svfprintf_internal_r+0xac>
    3a88:	00c00b44 	movi	r3,45
    3a8c:	d8c02785 	stb	r3,158(sp)
    3a90:	d8802a15 	stw	r2,168(sp)
    3a94:	dc802b17 	ldw	r18,172(sp)
    3a98:	d8002915 	stw	zero,164(sp)
    3a9c:	07000b44 	movi	fp,45
    3aa0:	003a7306 	br	2470 <___svfprintf_internal_r+0x6c8>
    3aa4:	9080004c 	andi	r2,r18,1
    3aa8:	1000941e 	bne	r2,zero,3cfc <___svfprintf_internal_r+0x1f54>
    3aac:	d8802117 	ldw	r2,132(sp)
    3ab0:	1405c83a 	sub	r2,r2,r16
    3ab4:	d8803315 	stw	r2,204(sp)
    3ab8:	b441161e 	bne	r22,r17,3f14 <___svfprintf_internal_r+0x216c>
    3abc:	dd802617 	ldw	r22,152(sp)
    3ac0:	00bfff44 	movi	r2,-3
    3ac4:	b0801a16 	blt	r22,r2,3b30 <___svfprintf_internal_r+0x1d88>
    3ac8:	d9402917 	ldw	r5,164(sp)
    3acc:	2d801816 	blt	r5,r22,3b30 <___svfprintf_internal_r+0x1d88>
    3ad0:	dd803215 	stw	r22,200(sp)
    3ad4:	003f3a06 	br	37c0 <___svfprintf_internal_r+0x1a18>
    3ad8:	1025883a 	mov	r18,r2
    3adc:	0039883a 	mov	fp,zero
    3ae0:	00800084 	movi	r2,2
    3ae4:	003fd606 	br	3a40 <___svfprintf_internal_r+0x1c98>
    3ae8:	9080004c 	andi	r2,r18,1
    3aec:	103f191e 	bne	r2,zero,3754 <___svfprintf_internal_r+0x19ac>
    3af0:	d8802117 	ldw	r2,132(sp)
    3af4:	003f2806 	br	3798 <___svfprintf_internal_r+0x19f0>
    3af8:	010000b4 	movhi	r4,2
    3afc:	2129d984 	addi	r4,r4,-22682
    3b00:	d9002b15 	stw	r4,172(sp)
    3b04:	003c7c06 	br	2cf8 <___svfprintf_internal_r+0xf50>
    3b08:	e005883a 	mov	r2,fp
    3b0c:	003f2206 	br	3798 <___svfprintf_internal_r+0x19f0>
    3b10:	d9402917 	ldw	r5,164(sp)
    3b14:	df002783 	ldbu	fp,158(sp)
    3b18:	dd002d15 	stw	r20,180(sp)
    3b1c:	d9402a15 	stw	r5,168(sp)
    3b20:	d9402e15 	stw	r5,184(sp)
    3b24:	d8002915 	stw	zero,164(sp)
    3b28:	d8003215 	stw	zero,200(sp)
    3b2c:	003a4c06 	br	2460 <___svfprintf_internal_r+0x6b8>
    3b30:	8c7fff84 	addi	r17,r17,-2
    3b34:	b5bfffc4 	addi	r22,r22,-1
    3b38:	dd802615 	stw	r22,152(sp)
    3b3c:	dc4022c5 	stb	r17,139(sp)
    3b40:	b000c316 	blt	r22,zero,3e50 <___svfprintf_internal_r+0x20a8>
    3b44:	00800ac4 	movi	r2,43
    3b48:	d8802305 	stb	r2,140(sp)
    3b4c:	00800244 	movi	r2,9
    3b50:	15806e16 	blt	r2,r22,3d0c <___svfprintf_internal_r+0x1f64>
    3b54:	00800c04 	movi	r2,48
    3b58:	b5800c04 	addi	r22,r22,48
    3b5c:	d8802345 	stb	r2,141(sp)
    3b60:	dd802385 	stb	r22,142(sp)
    3b64:	d88023c4 	addi	r2,sp,143
    3b68:	df0022c4 	addi	fp,sp,139
    3b6c:	d8c03317 	ldw	r3,204(sp)
    3b70:	1739c83a 	sub	fp,r2,fp
    3b74:	d9003317 	ldw	r4,204(sp)
    3b78:	e0c7883a 	add	r3,fp,r3
    3b7c:	df003b15 	stw	fp,236(sp)
    3b80:	d8c02e15 	stw	r3,184(sp)
    3b84:	00800044 	movi	r2,1
    3b88:	1100b70e 	bge	r2,r4,3e68 <___svfprintf_internal_r+0x20c0>
    3b8c:	d8c02e17 	ldw	r3,184(sp)
    3b90:	18c00044 	addi	r3,r3,1
    3b94:	d8c02e15 	stw	r3,184(sp)
    3b98:	1805883a 	mov	r2,r3
    3b9c:	1800b016 	blt	r3,zero,3e60 <___svfprintf_internal_r+0x20b8>
    3ba0:	d8003215 	stw	zero,200(sp)
    3ba4:	003f1006 	br	37e8 <___svfprintf_internal_r+0x1a40>
    3ba8:	d8802917 	ldw	r2,164(sp)
    3bac:	103ec71e 	bne	r2,zero,36cc <___svfprintf_internal_r+0x1924>
    3bb0:	dc002915 	stw	r16,164(sp)
    3bb4:	003ec506 	br	36cc <___svfprintf_internal_r+0x1924>
    3bb8:	d9402c17 	ldw	r5,176(sp)
    3bbc:	d9801e04 	addi	r6,sp,120
    3bc0:	9809883a 	mov	r4,r19
    3bc4:	00075540 	call	7554 <__ssprint_r>
    3bc8:	10395c1e 	bne	r2,zero,213c <___svfprintf_internal_r+0x394>
    3bcc:	dc402617 	ldw	r17,152(sp)
    3bd0:	d8c02017 	ldw	r3,128(sp)
    3bd4:	d8801f17 	ldw	r2,124(sp)
    3bd8:	da000404 	addi	r8,sp,16
    3bdc:	003e7706 	br	35bc <___svfprintf_internal_r+0x1814>
    3be0:	582f883a 	mov	r23,r11
    3be4:	d8002915 	stw	zero,164(sp)
    3be8:	0038c406 	br	1efc <___svfprintf_internal_r+0x154>
    3bec:	d8c02917 	ldw	r3,164(sp)
    3bf0:	d8802104 	addi	r2,sp,132
    3bf4:	d8800315 	stw	r2,12(sp)
    3bf8:	d9403617 	ldw	r5,216(sp)
    3bfc:	d8802504 	addi	r2,sp,148
    3c00:	d8800215 	stw	r2,8(sp)
    3c04:	d8802604 	addi	r2,sp,152
    3c08:	d8c00015 	stw	r3,0(sp)
    3c0c:	9809883a 	mov	r4,r19
    3c10:	d8800115 	stw	r2,4(sp)
    3c14:	01c000c4 	movi	r7,3
    3c18:	a00d883a 	mov	r6,r20
    3c1c:	da003e15 	stw	r8,248(sp)
    3c20:	00041800 	call	4180 <_dtoa_r>
    3c24:	d9002917 	ldw	r4,164(sp)
    3c28:	da003e17 	ldw	r8,248(sp)
    3c2c:	1021883a 	mov	r16,r2
    3c30:	1139883a 	add	fp,r2,r4
    3c34:	2007883a 	mov	r3,r4
    3c38:	81000007 	ldb	r4,0(r16)
    3c3c:	00800c04 	movi	r2,48
    3c40:	20806f26 	beq	r4,r2,3e00 <___svfprintf_internal_r+0x2058>
    3c44:	d8c02617 	ldw	r3,152(sp)
    3c48:	e0f9883a 	add	fp,fp,r3
    3c4c:	003ec206 	br	3758 <___svfprintf_internal_r+0x19b0>
    3c50:	00c00b44 	movi	r3,45
    3c54:	2520003c 	xorhi	r20,r4,32768
    3c58:	d8c02a05 	stb	r3,168(sp)
    3c5c:	003ea106 	br	36e4 <___svfprintf_internal_r+0x193c>
    3c60:	d8c03217 	ldw	r3,200(sp)
    3c64:	00c0890e 	bge	zero,r3,3e8c <___svfprintf_internal_r+0x20e4>
    3c68:	00800044 	movi	r2,1
    3c6c:	d9003317 	ldw	r4,204(sp)
    3c70:	1105883a 	add	r2,r2,r4
    3c74:	d8802e15 	stw	r2,184(sp)
    3c78:	10005f16 	blt	r2,zero,3df8 <___svfprintf_internal_r+0x2050>
    3c7c:	044019c4 	movi	r17,103
    3c80:	003ed906 	br	37e8 <___svfprintf_internal_r+0x1a40>
    3c84:	d9002917 	ldw	r4,164(sp)
    3c88:	20c00044 	addi	r3,r4,1
    3c8c:	003e9c06 	br	3700 <___svfprintf_internal_r+0x1958>
    3c90:	d9002917 	ldw	r4,164(sp)
    3c94:	00c0680e 	bge	zero,r3,3e38 <___svfprintf_internal_r+0x2090>
    3c98:	2000461e 	bne	r4,zero,3db4 <___svfprintf_internal_r+0x200c>
    3c9c:	9480004c 	andi	r18,r18,1
    3ca0:	9000441e 	bne	r18,zero,3db4 <___svfprintf_internal_r+0x200c>
    3ca4:	1805883a 	mov	r2,r3
    3ca8:	1800a016 	blt	r3,zero,3f2c <___svfprintf_internal_r+0x2184>
    3cac:	d8c03217 	ldw	r3,200(sp)
    3cb0:	d8c02e15 	stw	r3,184(sp)
    3cb4:	003ecc06 	br	37e8 <___svfprintf_internal_r+0x1a40>
    3cb8:	d9402917 	ldw	r5,164(sp)
    3cbc:	d8802104 	addi	r2,sp,132
    3cc0:	d8800315 	stw	r2,12(sp)
    3cc4:	d9400015 	stw	r5,0(sp)
    3cc8:	d8802504 	addi	r2,sp,148
    3ccc:	d9403617 	ldw	r5,216(sp)
    3cd0:	d8800215 	stw	r2,8(sp)
    3cd4:	d8802604 	addi	r2,sp,152
    3cd8:	d8800115 	stw	r2,4(sp)
    3cdc:	01c000c4 	movi	r7,3
    3ce0:	a00d883a 	mov	r6,r20
    3ce4:	9809883a 	mov	r4,r19
    3ce8:	da003e15 	stw	r8,248(sp)
    3cec:	00041800 	call	4180 <_dtoa_r>
    3cf0:	d8c02917 	ldw	r3,164(sp)
    3cf4:	da003e17 	ldw	r8,248(sp)
    3cf8:	1021883a 	mov	r16,r2
    3cfc:	00801184 	movi	r2,70
    3d00:	80f9883a 	add	fp,r16,r3
    3d04:	88bfcc26 	beq	r17,r2,3c38 <___svfprintf_internal_r+0x1e90>
    3d08:	003e9306 	br	3758 <___svfprintf_internal_r+0x19b0>
    3d0c:	df0022c4 	addi	fp,sp,139
    3d10:	dc002915 	stw	r16,164(sp)
    3d14:	9829883a 	mov	r20,r19
    3d18:	e021883a 	mov	r16,fp
    3d1c:	4027883a 	mov	r19,r8
    3d20:	b009883a 	mov	r4,r22
    3d24:	01400284 	movi	r5,10
    3d28:	000a1740 	call	a174 <__modsi3>
    3d2c:	10800c04 	addi	r2,r2,48
    3d30:	843fffc4 	addi	r16,r16,-1
    3d34:	b009883a 	mov	r4,r22
    3d38:	01400284 	movi	r5,10
    3d3c:	80800005 	stb	r2,0(r16)
    3d40:	000a0f00 	call	a0f0 <__divsi3>
    3d44:	102d883a 	mov	r22,r2
    3d48:	00800244 	movi	r2,9
    3d4c:	15bff416 	blt	r2,r22,3d20 <___svfprintf_internal_r+0x1f78>
    3d50:	9811883a 	mov	r8,r19
    3d54:	b0800c04 	addi	r2,r22,48
    3d58:	a027883a 	mov	r19,r20
    3d5c:	8029883a 	mov	r20,r16
    3d60:	a17fffc4 	addi	r5,r20,-1
    3d64:	a0bfffc5 	stb	r2,-1(r20)
    3d68:	dc002917 	ldw	r16,164(sp)
    3d6c:	2f00752e 	bgeu	r5,fp,3f44 <___svfprintf_internal_r+0x219c>
    3d70:	d9c02384 	addi	r7,sp,142
    3d74:	3d0fc83a 	sub	r7,r7,r20
    3d78:	d9002344 	addi	r4,sp,141
    3d7c:	e1cf883a 	add	r7,fp,r7
    3d80:	00000106 	br	3d88 <___svfprintf_internal_r+0x1fe0>
    3d84:	28800003 	ldbu	r2,0(r5)
    3d88:	20800005 	stb	r2,0(r4)
    3d8c:	21000044 	addi	r4,r4,1
    3d90:	29400044 	addi	r5,r5,1
    3d94:	21fffb1e 	bne	r4,r7,3d84 <___svfprintf_internal_r+0x1fdc>
    3d98:	d8802304 	addi	r2,sp,140
    3d9c:	1505c83a 	sub	r2,r2,r20
    3da0:	d8c02344 	addi	r3,sp,141
    3da4:	1885883a 	add	r2,r3,r2
    3da8:	003f7006 	br	3b6c <___svfprintf_internal_r+0x1dc4>
    3dac:	0005883a 	mov	r2,zero
    3db0:	003f0b06 	br	39e0 <___svfprintf_internal_r+0x1c38>
    3db4:	d9002917 	ldw	r4,164(sp)
    3db8:	d8c03217 	ldw	r3,200(sp)
    3dbc:	20800044 	addi	r2,r4,1
    3dc0:	1885883a 	add	r2,r3,r2
    3dc4:	d8802e15 	stw	r2,184(sp)
    3dc8:	103e870e 	bge	r2,zero,37e8 <___svfprintf_internal_r+0x1a40>
    3dcc:	0005883a 	mov	r2,zero
    3dd0:	003e8506 	br	37e8 <___svfprintf_internal_r+0x1a40>
    3dd4:	010000b4 	movhi	r4,2
    3dd8:	2129d984 	addi	r4,r4,-22682
    3ddc:	d9002b15 	stw	r4,172(sp)
    3de0:	003cc506 	br	30f8 <___svfprintf_internal_r+0x1350>
    3de4:	d8c03217 	ldw	r3,200(sp)
    3de8:	18c00044 	addi	r3,r3,1
    3dec:	d8c02e15 	stw	r3,184(sp)
    3df0:	1805883a 	mov	r2,r3
    3df4:	183fa10e 	bge	r3,zero,3c7c <___svfprintf_internal_r+0x1ed4>
    3df8:	0005883a 	mov	r2,zero
    3dfc:	003f9f06 	br	3c7c <___svfprintf_internal_r+0x1ed4>
    3e00:	d9003617 	ldw	r4,216(sp)
    3e04:	000d883a 	mov	r6,zero
    3e08:	000f883a 	mov	r7,zero
    3e0c:	a00b883a 	mov	r5,r20
    3e10:	d8c03d15 	stw	r3,244(sp)
    3e14:	da003e15 	stw	r8,248(sp)
    3e18:	000b4380 	call	b438 <__eqdf2>
    3e1c:	d8c03d17 	ldw	r3,244(sp)
    3e20:	da003e17 	ldw	r8,248(sp)
    3e24:	103f8726 	beq	r2,zero,3c44 <___svfprintf_internal_r+0x1e9c>
    3e28:	00800044 	movi	r2,1
    3e2c:	10c7c83a 	sub	r3,r2,r3
    3e30:	d8c02615 	stw	r3,152(sp)
    3e34:	003f8406 	br	3c48 <___svfprintf_internal_r+0x1ea0>
    3e38:	20000e1e 	bne	r4,zero,3e74 <___svfprintf_internal_r+0x20cc>
    3e3c:	9480004c 	andi	r18,r18,1
    3e40:	90000c1e 	bne	r18,zero,3e74 <___svfprintf_internal_r+0x20cc>
    3e44:	00800044 	movi	r2,1
    3e48:	d8802e15 	stw	r2,184(sp)
    3e4c:	003e6606 	br	37e8 <___svfprintf_internal_r+0x1a40>
    3e50:	00800b44 	movi	r2,45
    3e54:	05adc83a 	sub	r22,zero,r22
    3e58:	d8802305 	stb	r2,140(sp)
    3e5c:	003f3b06 	br	3b4c <___svfprintf_internal_r+0x1da4>
    3e60:	0005883a 	mov	r2,zero
    3e64:	003f4e06 	br	3ba0 <___svfprintf_internal_r+0x1df8>
    3e68:	90a4703a 	and	r18,r18,r2
    3e6c:	903f4a26 	beq	r18,zero,3b98 <___svfprintf_internal_r+0x1df0>
    3e70:	003f4606 	br	3b8c <___svfprintf_internal_r+0x1de4>
    3e74:	d8c02917 	ldw	r3,164(sp)
    3e78:	18c00084 	addi	r3,r3,2
    3e7c:	d8c02e15 	stw	r3,184(sp)
    3e80:	1805883a 	mov	r2,r3
    3e84:	183e580e 	bge	r3,zero,37e8 <___svfprintf_internal_r+0x1a40>
    3e88:	003fd006 	br	3dcc <___svfprintf_internal_r+0x2024>
    3e8c:	00800084 	movi	r2,2
    3e90:	10c5c83a 	sub	r2,r2,r3
    3e94:	003f7506 	br	3c6c <___svfprintf_internal_r+0x1ec4>
    3e98:	d8802d17 	ldw	r2,180(sp)
    3e9c:	d9002d17 	ldw	r4,180(sp)
    3ea0:	bc400043 	ldbu	r17,1(r23)
    3ea4:	10800017 	ldw	r2,0(r2)
    3ea8:	582f883a 	mov	r23,r11
    3eac:	d8802915 	stw	r2,164(sp)
    3eb0:	20800104 	addi	r2,r4,4
    3eb4:	d9002917 	ldw	r4,164(sp)
    3eb8:	d8802d15 	stw	r2,180(sp)
    3ebc:	203df00e 	bge	r4,zero,3680 <___svfprintf_internal_r+0x18d8>
    3ec0:	8c403fcc 	andi	r17,r17,255
    3ec4:	00bfffc4 	movi	r2,-1
    3ec8:	8c40201c 	xori	r17,r17,128
    3ecc:	d8802915 	stw	r2,164(sp)
    3ed0:	8c7fe004 	addi	r17,r17,-128
    3ed4:	00380806 	br	1ef8 <___svfprintf_internal_r+0x150>
    3ed8:	9080004c 	andi	r2,r18,1
    3edc:	0039883a 	mov	fp,zero
    3ee0:	10000726 	beq	r2,zero,3f00 <___svfprintf_internal_r+0x2158>
    3ee4:	d8c02817 	ldw	r3,160(sp)
    3ee8:	dc001dc4 	addi	r16,sp,119
    3eec:	00800c04 	movi	r2,48
    3ef0:	1c07c83a 	sub	r3,r3,r16
    3ef4:	d8801dc5 	stb	r2,119(sp)
    3ef8:	d8c02e15 	stw	r3,184(sp)
    3efc:	00395206 	br	2448 <___svfprintf_internal_r+0x6a0>
    3f00:	d8002e15 	stw	zero,184(sp)
    3f04:	dc001e04 	addi	r16,sp,120
    3f08:	00394f06 	br	2448 <___svfprintf_internal_r+0x6a0>
    3f0c:	0005883a 	mov	r2,zero
    3f10:	003e3206 	br	37dc <___svfprintf_internal_r+0x1a34>
    3f14:	dd802617 	ldw	r22,152(sp)
    3f18:	003f0606 	br	3b34 <___svfprintf_internal_r+0x1d8c>
    3f1c:	d9c02785 	stb	r7,158(sp)
    3f20:	003a5106 	br	2868 <___svfprintf_internal_r+0xac0>
    3f24:	d9c02785 	stb	r7,158(sp)
    3f28:	003a3706 	br	2808 <___svfprintf_internal_r+0xa60>
    3f2c:	0005883a 	mov	r2,zero
    3f30:	003f5e06 	br	3cac <___svfprintf_internal_r+0x1f04>
    3f34:	d9c02785 	stb	r7,158(sp)
    3f38:	00391706 	br	2398 <___svfprintf_internal_r+0x5f0>
    3f3c:	d9c02785 	stb	r7,158(sp)
    3f40:	0038e606 	br	22dc <___svfprintf_internal_r+0x534>
    3f44:	d8802344 	addi	r2,sp,141
    3f48:	003f0806 	br	3b6c <___svfprintf_internal_r+0x1dc4>
    3f4c:	d9c02785 	stb	r7,158(sp)
    3f50:	0038b706 	br	2230 <___svfprintf_internal_r+0x488>
    3f54:	d9c02785 	stb	r7,158(sp)
    3f58:	003adc06 	br	2acc <___svfprintf_internal_r+0xd24>
    3f5c:	d9403917 	ldw	r5,228(sp)
    3f60:	00800304 	movi	r2,12
    3f64:	28800015 	stw	r2,0(r5)
    3f68:	00bfffc4 	movi	r2,-1
    3f6c:	00387806 	br	2150 <___svfprintf_internal_r+0x3a8>
    3f70:	d9c02785 	stb	r7,158(sp)
    3f74:	003abf06 	br	2a74 <___svfprintf_internal_r+0xccc>
    3f78:	d9c02785 	stb	r7,158(sp)
    3f7c:	003a9b06 	br	29ec <___svfprintf_internal_r+0xc44>

00003f80 <quorem>:
    3f80:	defff704 	addi	sp,sp,-36
    3f84:	dc800215 	stw	r18,8(sp)
    3f88:	20800417 	ldw	r2,16(r4)
    3f8c:	2c800417 	ldw	r18,16(r5)
    3f90:	dfc00815 	stw	ra,32(sp)
    3f94:	ddc00715 	stw	r23,28(sp)
    3f98:	dd800615 	stw	r22,24(sp)
    3f9c:	dd400515 	stw	r21,20(sp)
    3fa0:	dd000415 	stw	r20,16(sp)
    3fa4:	dcc00315 	stw	r19,12(sp)
    3fa8:	dc400115 	stw	r17,4(sp)
    3fac:	dc000015 	stw	r16,0(sp)
    3fb0:	14807116 	blt	r2,r18,4178 <quorem+0x1f8>
    3fb4:	94bfffc4 	addi	r18,r18,-1
    3fb8:	94ad883a 	add	r22,r18,r18
    3fbc:	b5ad883a 	add	r22,r22,r22
    3fc0:	2c400504 	addi	r17,r5,20
    3fc4:	8da9883a 	add	r20,r17,r22
    3fc8:	25400504 	addi	r21,r4,20
    3fcc:	282f883a 	mov	r23,r5
    3fd0:	adad883a 	add	r22,r21,r22
    3fd4:	a1400017 	ldw	r5,0(r20)
    3fd8:	2021883a 	mov	r16,r4
    3fdc:	b1000017 	ldw	r4,0(r22)
    3fe0:	29400044 	addi	r5,r5,1
    3fe4:	000a1e80 	call	a1e8 <__udivsi3>
    3fe8:	1027883a 	mov	r19,r2
    3fec:	10002c26 	beq	r2,zero,40a0 <quorem+0x120>
    3ff0:	a813883a 	mov	r9,r21
    3ff4:	880b883a 	mov	r5,r17
    3ff8:	0009883a 	mov	r4,zero
    3ffc:	000d883a 	mov	r6,zero
    4000:	2a000017 	ldw	r8,0(r5)
    4004:	49c00017 	ldw	r7,0(r9)
    4008:	29400104 	addi	r5,r5,4
    400c:	40bfffcc 	andi	r2,r8,65535
    4010:	14c5383a 	mul	r2,r2,r19
    4014:	4010d43a 	srli	r8,r8,16
    4018:	38ffffcc 	andi	r3,r7,65535
    401c:	1105883a 	add	r2,r2,r4
    4020:	1008d43a 	srli	r4,r2,16
    4024:	44d1383a 	mul	r8,r8,r19
    4028:	198d883a 	add	r6,r3,r6
    402c:	10ffffcc 	andi	r3,r2,65535
    4030:	30c7c83a 	sub	r3,r6,r3
    4034:	380ed43a 	srli	r7,r7,16
    4038:	4105883a 	add	r2,r8,r4
    403c:	180dd43a 	srai	r6,r3,16
    4040:	113fffcc 	andi	r4,r2,65535
    4044:	390fc83a 	sub	r7,r7,r4
    4048:	398d883a 	add	r6,r7,r6
    404c:	300e943a 	slli	r7,r6,16
    4050:	18ffffcc 	andi	r3,r3,65535
    4054:	1008d43a 	srli	r4,r2,16
    4058:	38ceb03a 	or	r7,r7,r3
    405c:	49c00015 	stw	r7,0(r9)
    4060:	300dd43a 	srai	r6,r6,16
    4064:	4a400104 	addi	r9,r9,4
    4068:	a17fe52e 	bgeu	r20,r5,4000 <quorem+0x80>
    406c:	b0800017 	ldw	r2,0(r22)
    4070:	10000b1e 	bne	r2,zero,40a0 <quorem+0x120>
    4074:	b0bfff04 	addi	r2,r22,-4
    4078:	a880082e 	bgeu	r21,r2,409c <quorem+0x11c>
    407c:	b0ffff17 	ldw	r3,-4(r22)
    4080:	18000326 	beq	r3,zero,4090 <quorem+0x110>
    4084:	00000506 	br	409c <quorem+0x11c>
    4088:	10c00017 	ldw	r3,0(r2)
    408c:	1800031e 	bne	r3,zero,409c <quorem+0x11c>
    4090:	10bfff04 	addi	r2,r2,-4
    4094:	94bfffc4 	addi	r18,r18,-1
    4098:	a8bffb36 	bltu	r21,r2,4088 <quorem+0x108>
    409c:	84800415 	stw	r18,16(r16)
    40a0:	b80b883a 	mov	r5,r23
    40a4:	8009883a 	mov	r4,r16
    40a8:	0006be40 	call	6be4 <__mcmp>
    40ac:	10002616 	blt	r2,zero,4148 <quorem+0x1c8>
    40b0:	9cc00044 	addi	r19,r19,1
    40b4:	a805883a 	mov	r2,r21
    40b8:	000b883a 	mov	r5,zero
    40bc:	11000017 	ldw	r4,0(r2)
    40c0:	89800017 	ldw	r6,0(r17)
    40c4:	10800104 	addi	r2,r2,4
    40c8:	20ffffcc 	andi	r3,r4,65535
    40cc:	194b883a 	add	r5,r3,r5
    40d0:	30ffffcc 	andi	r3,r6,65535
    40d4:	28c7c83a 	sub	r3,r5,r3
    40d8:	300cd43a 	srli	r6,r6,16
    40dc:	2008d43a 	srli	r4,r4,16
    40e0:	180bd43a 	srai	r5,r3,16
    40e4:	18ffffcc 	andi	r3,r3,65535
    40e8:	2189c83a 	sub	r4,r4,r6
    40ec:	2149883a 	add	r4,r4,r5
    40f0:	200c943a 	slli	r6,r4,16
    40f4:	8c400104 	addi	r17,r17,4
    40f8:	200bd43a 	srai	r5,r4,16
    40fc:	30c6b03a 	or	r3,r6,r3
    4100:	10ffff15 	stw	r3,-4(r2)
    4104:	a47fed2e 	bgeu	r20,r17,40bc <quorem+0x13c>
    4108:	9485883a 	add	r2,r18,r18
    410c:	1085883a 	add	r2,r2,r2
    4110:	a887883a 	add	r3,r21,r2
    4114:	18800017 	ldw	r2,0(r3)
    4118:	10000b1e 	bne	r2,zero,4148 <quorem+0x1c8>
    411c:	18bfff04 	addi	r2,r3,-4
    4120:	a880082e 	bgeu	r21,r2,4144 <quorem+0x1c4>
    4124:	18ffff17 	ldw	r3,-4(r3)
    4128:	18000326 	beq	r3,zero,4138 <quorem+0x1b8>
    412c:	00000506 	br	4144 <quorem+0x1c4>
    4130:	10c00017 	ldw	r3,0(r2)
    4134:	1800031e 	bne	r3,zero,4144 <quorem+0x1c4>
    4138:	10bfff04 	addi	r2,r2,-4
    413c:	94bfffc4 	addi	r18,r18,-1
    4140:	a8bffb36 	bltu	r21,r2,4130 <quorem+0x1b0>
    4144:	84800415 	stw	r18,16(r16)
    4148:	9805883a 	mov	r2,r19
    414c:	dfc00817 	ldw	ra,32(sp)
    4150:	ddc00717 	ldw	r23,28(sp)
    4154:	dd800617 	ldw	r22,24(sp)
    4158:	dd400517 	ldw	r21,20(sp)
    415c:	dd000417 	ldw	r20,16(sp)
    4160:	dcc00317 	ldw	r19,12(sp)
    4164:	dc800217 	ldw	r18,8(sp)
    4168:	dc400117 	ldw	r17,4(sp)
    416c:	dc000017 	ldw	r16,0(sp)
    4170:	dec00904 	addi	sp,sp,36
    4174:	f800283a 	ret
    4178:	0005883a 	mov	r2,zero
    417c:	003ff306 	br	414c <quorem+0x1cc>

00004180 <_dtoa_r>:
    4180:	20801017 	ldw	r2,64(r4)
    4184:	deffde04 	addi	sp,sp,-136
    4188:	df002015 	stw	fp,128(sp)
    418c:	dcc01b15 	stw	r19,108(sp)
    4190:	dc801a15 	stw	r18,104(sp)
    4194:	dc401915 	stw	r17,100(sp)
    4198:	dc001815 	stw	r16,96(sp)
    419c:	dfc02115 	stw	ra,132(sp)
    41a0:	ddc01f15 	stw	r23,124(sp)
    41a4:	dd801e15 	stw	r22,120(sp)
    41a8:	dd401d15 	stw	r21,116(sp)
    41ac:	dd001c15 	stw	r20,112(sp)
    41b0:	d9c00315 	stw	r7,12(sp)
    41b4:	2039883a 	mov	fp,r4
    41b8:	3023883a 	mov	r17,r6
    41bc:	2825883a 	mov	r18,r5
    41c0:	dc002417 	ldw	r16,144(sp)
    41c4:	3027883a 	mov	r19,r6
    41c8:	10000826 	beq	r2,zero,41ec <_dtoa_r+0x6c>
    41cc:	21801117 	ldw	r6,68(r4)
    41d0:	00c00044 	movi	r3,1
    41d4:	100b883a 	mov	r5,r2
    41d8:	1986983a 	sll	r3,r3,r6
    41dc:	11800115 	stw	r6,4(r2)
    41e0:	10c00215 	stw	r3,8(r2)
    41e4:	00063c40 	call	63c4 <_Bfree>
    41e8:	e0001015 	stw	zero,64(fp)
    41ec:	88002e16 	blt	r17,zero,42a8 <_dtoa_r+0x128>
    41f0:	80000015 	stw	zero,0(r16)
    41f4:	889ffc2c 	andhi	r2,r17,32752
    41f8:	00dffc34 	movhi	r3,32752
    41fc:	10c01c26 	beq	r2,r3,4270 <_dtoa_r+0xf0>
    4200:	000d883a 	mov	r6,zero
    4204:	000f883a 	mov	r7,zero
    4208:	9009883a 	mov	r4,r18
    420c:	980b883a 	mov	r5,r19
    4210:	000b4380 	call	b438 <__eqdf2>
    4214:	10002b1e 	bne	r2,zero,42c4 <_dtoa_r+0x144>
    4218:	d9c02317 	ldw	r7,140(sp)
    421c:	00800044 	movi	r2,1
    4220:	38800015 	stw	r2,0(r7)
    4224:	d8802517 	ldw	r2,148(sp)
    4228:	10019e26 	beq	r2,zero,48a4 <_dtoa_r+0x724>
    422c:	d8c02517 	ldw	r3,148(sp)
    4230:	008000b4 	movhi	r2,2
    4234:	10a9d944 	addi	r2,r2,-22683
    4238:	18800015 	stw	r2,0(r3)
    423c:	10bfffc4 	addi	r2,r2,-1
    4240:	dfc02117 	ldw	ra,132(sp)
    4244:	df002017 	ldw	fp,128(sp)
    4248:	ddc01f17 	ldw	r23,124(sp)
    424c:	dd801e17 	ldw	r22,120(sp)
    4250:	dd401d17 	ldw	r21,116(sp)
    4254:	dd001c17 	ldw	r20,112(sp)
    4258:	dcc01b17 	ldw	r19,108(sp)
    425c:	dc801a17 	ldw	r18,104(sp)
    4260:	dc401917 	ldw	r17,100(sp)
    4264:	dc001817 	ldw	r16,96(sp)
    4268:	dec02204 	addi	sp,sp,136
    426c:	f800283a 	ret
    4270:	d8c02317 	ldw	r3,140(sp)
    4274:	0089c3c4 	movi	r2,9999
    4278:	18800015 	stw	r2,0(r3)
    427c:	90017726 	beq	r18,zero,485c <_dtoa_r+0x6dc>
    4280:	008000b4 	movhi	r2,2
    4284:	10a9e504 	addi	r2,r2,-22636
    4288:	d9002517 	ldw	r4,148(sp)
    428c:	203fec26 	beq	r4,zero,4240 <_dtoa_r+0xc0>
    4290:	10c000c7 	ldb	r3,3(r2)
    4294:	1801781e 	bne	r3,zero,4878 <_dtoa_r+0x6f8>
    4298:	10c000c4 	addi	r3,r2,3
    429c:	d9802517 	ldw	r6,148(sp)
    42a0:	30c00015 	stw	r3,0(r6)
    42a4:	003fe606 	br	4240 <_dtoa_r+0xc0>
    42a8:	04e00034 	movhi	r19,32768
    42ac:	9cffffc4 	addi	r19,r19,-1
    42b0:	00800044 	movi	r2,1
    42b4:	8ce6703a 	and	r19,r17,r19
    42b8:	80800015 	stw	r2,0(r16)
    42bc:	9823883a 	mov	r17,r19
    42c0:	003fcc06 	br	41f4 <_dtoa_r+0x74>
    42c4:	d8800204 	addi	r2,sp,8
    42c8:	d8800015 	stw	r2,0(sp)
    42cc:	d9c00104 	addi	r7,sp,4
    42d0:	900b883a 	mov	r5,r18
    42d4:	980d883a 	mov	r6,r19
    42d8:	e009883a 	mov	r4,fp
    42dc:	8820d53a 	srli	r16,r17,20
    42e0:	0006fb00 	call	6fb0 <__d2b>
    42e4:	d8800915 	stw	r2,36(sp)
    42e8:	8001651e 	bne	r16,zero,4880 <_dtoa_r+0x700>
    42ec:	dd800217 	ldw	r22,8(sp)
    42f0:	dc000117 	ldw	r16,4(sp)
    42f4:	00800804 	movi	r2,32
    42f8:	b421883a 	add	r16,r22,r16
    42fc:	80c10c84 	addi	r3,r16,1074
    4300:	10c2d10e 	bge	r2,r3,4e48 <_dtoa_r+0xcc8>
    4304:	00801004 	movi	r2,64
    4308:	81010484 	addi	r4,r16,1042
    430c:	10c7c83a 	sub	r3,r2,r3
    4310:	9108d83a 	srl	r4,r18,r4
    4314:	88e2983a 	sll	r17,r17,r3
    4318:	2448b03a 	or	r4,r4,r17
    431c:	000c8000 	call	c800 <__floatunsidf>
    4320:	017f8434 	movhi	r5,65040
    4324:	01800044 	movi	r6,1
    4328:	1009883a 	mov	r4,r2
    432c:	194b883a 	add	r5,r3,r5
    4330:	843fffc4 	addi	r16,r16,-1
    4334:	d9801115 	stw	r6,68(sp)
    4338:	000d883a 	mov	r6,zero
    433c:	01cffe34 	movhi	r7,16376
    4340:	000bda80 	call	bda8 <__subdf3>
    4344:	0198dbf4 	movhi	r6,25455
    4348:	01cff4f4 	movhi	r7,16339
    434c:	3190d844 	addi	r6,r6,17249
    4350:	39e1e9c4 	addi	r7,r7,-30809
    4354:	1009883a 	mov	r4,r2
    4358:	180b883a 	mov	r5,r3
    435c:	000b6900 	call	b690 <__muldf3>
    4360:	01a2d874 	movhi	r6,35681
    4364:	01cff1f4 	movhi	r7,16327
    4368:	31b22cc4 	addi	r6,r6,-14157
    436c:	39e28a04 	addi	r7,r7,-30168
    4370:	180b883a 	mov	r5,r3
    4374:	1009883a 	mov	r4,r2
    4378:	000a2a40 	call	a2a4 <__adddf3>
    437c:	8009883a 	mov	r4,r16
    4380:	1029883a 	mov	r20,r2
    4384:	1823883a 	mov	r17,r3
    4388:	000c7240 	call	c724 <__floatsidf>
    438c:	019427f4 	movhi	r6,20639
    4390:	01cff4f4 	movhi	r7,16339
    4394:	319e7ec4 	addi	r6,r6,31227
    4398:	39d104c4 	addi	r7,r7,17427
    439c:	1009883a 	mov	r4,r2
    43a0:	180b883a 	mov	r5,r3
    43a4:	000b6900 	call	b690 <__muldf3>
    43a8:	100d883a 	mov	r6,r2
    43ac:	180f883a 	mov	r7,r3
    43b0:	a009883a 	mov	r4,r20
    43b4:	880b883a 	mov	r5,r17
    43b8:	000a2a40 	call	a2a4 <__adddf3>
    43bc:	1009883a 	mov	r4,r2
    43c0:	180b883a 	mov	r5,r3
    43c4:	1029883a 	mov	r20,r2
    43c8:	1823883a 	mov	r17,r3
    43cc:	000c6a40 	call	c6a4 <__fixdfsi>
    43d0:	000d883a 	mov	r6,zero
    43d4:	000f883a 	mov	r7,zero
    43d8:	a009883a 	mov	r4,r20
    43dc:	880b883a 	mov	r5,r17
    43e0:	d8800515 	stw	r2,20(sp)
    43e4:	000b59c0 	call	b59c <__ledf2>
    43e8:	10028716 	blt	r2,zero,4e08 <_dtoa_r+0xc88>
    43ec:	d8c00517 	ldw	r3,20(sp)
    43f0:	00800584 	movi	r2,22
    43f4:	10c27536 	bltu	r2,r3,4dcc <_dtoa_r+0xc4c>
    43f8:	180490fa 	slli	r2,r3,3
    43fc:	00c000b4 	movhi	r3,2
    4400:	18ea0104 	addi	r3,r3,-22524
    4404:	1885883a 	add	r2,r3,r2
    4408:	11000017 	ldw	r4,0(r2)
    440c:	11400117 	ldw	r5,4(r2)
    4410:	900d883a 	mov	r6,r18
    4414:	980f883a 	mov	r7,r19
    4418:	000b4c00 	call	b4c0 <__gedf2>
    441c:	00828d0e 	bge	zero,r2,4e54 <_dtoa_r+0xcd4>
    4420:	d9000517 	ldw	r4,20(sp)
    4424:	d8000e15 	stw	zero,56(sp)
    4428:	213fffc4 	addi	r4,r4,-1
    442c:	d9000515 	stw	r4,20(sp)
    4430:	b42dc83a 	sub	r22,r22,r16
    4434:	b5bfffc4 	addi	r22,r22,-1
    4438:	b0026f16 	blt	r22,zero,4df8 <_dtoa_r+0xc78>
    443c:	d8000815 	stw	zero,32(sp)
    4440:	d9c00517 	ldw	r7,20(sp)
    4444:	38026416 	blt	r7,zero,4dd8 <_dtoa_r+0xc58>
    4448:	b1ed883a 	add	r22,r22,r7
    444c:	d9c00d15 	stw	r7,52(sp)
    4450:	d8000a15 	stw	zero,40(sp)
    4454:	d9800317 	ldw	r6,12(sp)
    4458:	00800244 	movi	r2,9
    445c:	11811436 	bltu	r2,r6,48b0 <_dtoa_r+0x730>
    4460:	00800144 	movi	r2,5
    4464:	1184e10e 	bge	r2,r6,57ec <_dtoa_r+0x166c>
    4468:	31bfff04 	addi	r6,r6,-4
    446c:	d9800315 	stw	r6,12(sp)
    4470:	0023883a 	mov	r17,zero
    4474:	d9800317 	ldw	r6,12(sp)
    4478:	008000c4 	movi	r2,3
    447c:	30836726 	beq	r6,r2,521c <_dtoa_r+0x109c>
    4480:	1183410e 	bge	r2,r6,5188 <_dtoa_r+0x1008>
    4484:	d9c00317 	ldw	r7,12(sp)
    4488:	00800104 	movi	r2,4
    448c:	38827c26 	beq	r7,r2,4e80 <_dtoa_r+0xd00>
    4490:	00800144 	movi	r2,5
    4494:	3884c41e 	bne	r7,r2,57a8 <_dtoa_r+0x1628>
    4498:	00800044 	movi	r2,1
    449c:	d8800b15 	stw	r2,44(sp)
    44a0:	d8c00517 	ldw	r3,20(sp)
    44a4:	d9002217 	ldw	r4,136(sp)
    44a8:	1907883a 	add	r3,r3,r4
    44ac:	19800044 	addi	r6,r3,1
    44b0:	d8c00c15 	stw	r3,48(sp)
    44b4:	d9800615 	stw	r6,24(sp)
    44b8:	0183a40e 	bge	zero,r6,534c <_dtoa_r+0x11cc>
    44bc:	d9800617 	ldw	r6,24(sp)
    44c0:	3021883a 	mov	r16,r6
    44c4:	e0001115 	stw	zero,68(fp)
    44c8:	008005c4 	movi	r2,23
    44cc:	1184c92e 	bgeu	r2,r6,57f4 <_dtoa_r+0x1674>
    44d0:	00c00044 	movi	r3,1
    44d4:	00800104 	movi	r2,4
    44d8:	1085883a 	add	r2,r2,r2
    44dc:	11000504 	addi	r4,r2,20
    44e0:	180b883a 	mov	r5,r3
    44e4:	18c00044 	addi	r3,r3,1
    44e8:	313ffb2e 	bgeu	r6,r4,44d8 <_dtoa_r+0x358>
    44ec:	e1401115 	stw	r5,68(fp)
    44f0:	e009883a 	mov	r4,fp
    44f4:	000631c0 	call	631c <_Balloc>
    44f8:	d8800715 	stw	r2,28(sp)
    44fc:	e0801015 	stw	r2,64(fp)
    4500:	00800384 	movi	r2,14
    4504:	1400f736 	bltu	r2,r16,48e4 <_dtoa_r+0x764>
    4508:	8800f626 	beq	r17,zero,48e4 <_dtoa_r+0x764>
    450c:	d9c00517 	ldw	r7,20(sp)
    4510:	01c39a0e 	bge	zero,r7,537c <_dtoa_r+0x11fc>
    4514:	388003cc 	andi	r2,r7,15
    4518:	100490fa 	slli	r2,r2,3
    451c:	382bd13a 	srai	r21,r7,4
    4520:	00c000b4 	movhi	r3,2
    4524:	18ea0104 	addi	r3,r3,-22524
    4528:	1885883a 	add	r2,r3,r2
    452c:	a8c0040c 	andi	r3,r21,16
    4530:	12400017 	ldw	r9,0(r2)
    4534:	12000117 	ldw	r8,4(r2)
    4538:	18037926 	beq	r3,zero,5320 <_dtoa_r+0x11a0>
    453c:	008000b4 	movhi	r2,2
    4540:	10a9f704 	addi	r2,r2,-22564
    4544:	11800817 	ldw	r6,32(r2)
    4548:	11c00917 	ldw	r7,36(r2)
    454c:	9009883a 	mov	r4,r18
    4550:	980b883a 	mov	r5,r19
    4554:	da001715 	stw	r8,92(sp)
    4558:	da401615 	stw	r9,88(sp)
    455c:	000ab500 	call	ab50 <__divdf3>
    4560:	da001717 	ldw	r8,92(sp)
    4564:	da401617 	ldw	r9,88(sp)
    4568:	ad4003cc 	andi	r21,r21,15
    456c:	040000c4 	movi	r16,3
    4570:	1023883a 	mov	r17,r2
    4574:	1829883a 	mov	r20,r3
    4578:	a8001126 	beq	r21,zero,45c0 <_dtoa_r+0x440>
    457c:	05c000b4 	movhi	r23,2
    4580:	bde9f704 	addi	r23,r23,-22564
    4584:	4805883a 	mov	r2,r9
    4588:	4007883a 	mov	r3,r8
    458c:	a980004c 	andi	r6,r21,1
    4590:	1009883a 	mov	r4,r2
    4594:	a82bd07a 	srai	r21,r21,1
    4598:	180b883a 	mov	r5,r3
    459c:	30000426 	beq	r6,zero,45b0 <_dtoa_r+0x430>
    45a0:	b9800017 	ldw	r6,0(r23)
    45a4:	b9c00117 	ldw	r7,4(r23)
    45a8:	84000044 	addi	r16,r16,1
    45ac:	000b6900 	call	b690 <__muldf3>
    45b0:	bdc00204 	addi	r23,r23,8
    45b4:	a83ff51e 	bne	r21,zero,458c <_dtoa_r+0x40c>
    45b8:	1013883a 	mov	r9,r2
    45bc:	1811883a 	mov	r8,r3
    45c0:	480d883a 	mov	r6,r9
    45c4:	400f883a 	mov	r7,r8
    45c8:	8809883a 	mov	r4,r17
    45cc:	a00b883a 	mov	r5,r20
    45d0:	000ab500 	call	ab50 <__divdf3>
    45d4:	d8800f15 	stw	r2,60(sp)
    45d8:	d8c01015 	stw	r3,64(sp)
    45dc:	d8c00e17 	ldw	r3,56(sp)
    45e0:	18000626 	beq	r3,zero,45fc <_dtoa_r+0x47c>
    45e4:	d9000f17 	ldw	r4,60(sp)
    45e8:	d9401017 	ldw	r5,64(sp)
    45ec:	000d883a 	mov	r6,zero
    45f0:	01cffc34 	movhi	r7,16368
    45f4:	000b59c0 	call	b59c <__ledf2>
    45f8:	10040b16 	blt	r2,zero,5628 <_dtoa_r+0x14a8>
    45fc:	8009883a 	mov	r4,r16
    4600:	000c7240 	call	c724 <__floatsidf>
    4604:	d9800f17 	ldw	r6,60(sp)
    4608:	d9c01017 	ldw	r7,64(sp)
    460c:	1009883a 	mov	r4,r2
    4610:	180b883a 	mov	r5,r3
    4614:	000b6900 	call	b690 <__muldf3>
    4618:	000d883a 	mov	r6,zero
    461c:	01d00734 	movhi	r7,16412
    4620:	1009883a 	mov	r4,r2
    4624:	180b883a 	mov	r5,r3
    4628:	000a2a40 	call	a2a4 <__adddf3>
    462c:	1021883a 	mov	r16,r2
    4630:	d8800617 	ldw	r2,24(sp)
    4634:	047f3034 	movhi	r17,64704
    4638:	1c63883a 	add	r17,r3,r17
    463c:	10031826 	beq	r2,zero,52a0 <_dtoa_r+0x1120>
    4640:	d8c00517 	ldw	r3,20(sp)
    4644:	db000617 	ldw	r12,24(sp)
    4648:	d8c01315 	stw	r3,76(sp)
    464c:	d9000b17 	ldw	r4,44(sp)
    4650:	20038f26 	beq	r4,zero,5490 <_dtoa_r+0x1310>
    4654:	60bfffc4 	addi	r2,r12,-1
    4658:	100490fa 	slli	r2,r2,3
    465c:	00c000b4 	movhi	r3,2
    4660:	18ea0104 	addi	r3,r3,-22524
    4664:	1885883a 	add	r2,r3,r2
    4668:	11800017 	ldw	r6,0(r2)
    466c:	11c00117 	ldw	r7,4(r2)
    4670:	d8800717 	ldw	r2,28(sp)
    4674:	0009883a 	mov	r4,zero
    4678:	014ff834 	movhi	r5,16352
    467c:	db001615 	stw	r12,88(sp)
    4680:	15c00044 	addi	r23,r2,1
    4684:	000ab500 	call	ab50 <__divdf3>
    4688:	800d883a 	mov	r6,r16
    468c:	880f883a 	mov	r7,r17
    4690:	1009883a 	mov	r4,r2
    4694:	180b883a 	mov	r5,r3
    4698:	000bda80 	call	bda8 <__subdf3>
    469c:	d9401017 	ldw	r5,64(sp)
    46a0:	d9000f17 	ldw	r4,60(sp)
    46a4:	102b883a 	mov	r21,r2
    46a8:	d8c01215 	stw	r3,72(sp)
    46ac:	000c6a40 	call	c6a4 <__fixdfsi>
    46b0:	1009883a 	mov	r4,r2
    46b4:	1029883a 	mov	r20,r2
    46b8:	000c7240 	call	c724 <__floatsidf>
    46bc:	d9000f17 	ldw	r4,60(sp)
    46c0:	d9401017 	ldw	r5,64(sp)
    46c4:	100d883a 	mov	r6,r2
    46c8:	180f883a 	mov	r7,r3
    46cc:	000bda80 	call	bda8 <__subdf3>
    46d0:	1823883a 	mov	r17,r3
    46d4:	d8c00717 	ldw	r3,28(sp)
    46d8:	d9401217 	ldw	r5,72(sp)
    46dc:	a2000c04 	addi	r8,r20,48
    46e0:	1021883a 	mov	r16,r2
    46e4:	1a000005 	stb	r8,0(r3)
    46e8:	800d883a 	mov	r6,r16
    46ec:	880f883a 	mov	r7,r17
    46f0:	a809883a 	mov	r4,r21
    46f4:	4029883a 	mov	r20,r8
    46f8:	000b4c00 	call	b4c0 <__gedf2>
    46fc:	00841d16 	blt	zero,r2,5774 <_dtoa_r+0x15f4>
    4700:	800d883a 	mov	r6,r16
    4704:	880f883a 	mov	r7,r17
    4708:	0009883a 	mov	r4,zero
    470c:	014ffc34 	movhi	r5,16368
    4710:	000bda80 	call	bda8 <__subdf3>
    4714:	d9401217 	ldw	r5,72(sp)
    4718:	100d883a 	mov	r6,r2
    471c:	180f883a 	mov	r7,r3
    4720:	a809883a 	mov	r4,r21
    4724:	000b4c00 	call	b4c0 <__gedf2>
    4728:	db001617 	ldw	r12,88(sp)
    472c:	00840e16 	blt	zero,r2,5768 <_dtoa_r+0x15e8>
    4730:	00800044 	movi	r2,1
    4734:	13006b0e 	bge	r2,r12,48e4 <_dtoa_r+0x764>
    4738:	d9000717 	ldw	r4,28(sp)
    473c:	dd800f15 	stw	r22,60(sp)
    4740:	dcc01015 	stw	r19,64(sp)
    4744:	2319883a 	add	r12,r4,r12
    4748:	dcc01217 	ldw	r19,72(sp)
    474c:	602d883a 	mov	r22,r12
    4750:	dc801215 	stw	r18,72(sp)
    4754:	b825883a 	mov	r18,r23
    4758:	00000906 	br	4780 <_dtoa_r+0x600>
    475c:	000bda80 	call	bda8 <__subdf3>
    4760:	a80d883a 	mov	r6,r21
    4764:	980f883a 	mov	r7,r19
    4768:	1009883a 	mov	r4,r2
    476c:	180b883a 	mov	r5,r3
    4770:	000b59c0 	call	b59c <__ledf2>
    4774:	1003e816 	blt	r2,zero,5718 <_dtoa_r+0x1598>
    4778:	b825883a 	mov	r18,r23
    477c:	bd83e926 	beq	r23,r22,5724 <_dtoa_r+0x15a4>
    4780:	a809883a 	mov	r4,r21
    4784:	980b883a 	mov	r5,r19
    4788:	000d883a 	mov	r6,zero
    478c:	01d00934 	movhi	r7,16420
    4790:	000b6900 	call	b690 <__muldf3>
    4794:	000d883a 	mov	r6,zero
    4798:	01d00934 	movhi	r7,16420
    479c:	8009883a 	mov	r4,r16
    47a0:	880b883a 	mov	r5,r17
    47a4:	102b883a 	mov	r21,r2
    47a8:	1827883a 	mov	r19,r3
    47ac:	000b6900 	call	b690 <__muldf3>
    47b0:	180b883a 	mov	r5,r3
    47b4:	1009883a 	mov	r4,r2
    47b8:	1821883a 	mov	r16,r3
    47bc:	1023883a 	mov	r17,r2
    47c0:	000c6a40 	call	c6a4 <__fixdfsi>
    47c4:	1009883a 	mov	r4,r2
    47c8:	1029883a 	mov	r20,r2
    47cc:	000c7240 	call	c724 <__floatsidf>
    47d0:	8809883a 	mov	r4,r17
    47d4:	800b883a 	mov	r5,r16
    47d8:	100d883a 	mov	r6,r2
    47dc:	180f883a 	mov	r7,r3
    47e0:	000bda80 	call	bda8 <__subdf3>
    47e4:	a5000c04 	addi	r20,r20,48
    47e8:	a80d883a 	mov	r6,r21
    47ec:	980f883a 	mov	r7,r19
    47f0:	1009883a 	mov	r4,r2
    47f4:	180b883a 	mov	r5,r3
    47f8:	95000005 	stb	r20,0(r18)
    47fc:	1021883a 	mov	r16,r2
    4800:	1823883a 	mov	r17,r3
    4804:	000b59c0 	call	b59c <__ledf2>
    4808:	bdc00044 	addi	r23,r23,1
    480c:	800d883a 	mov	r6,r16
    4810:	880f883a 	mov	r7,r17
    4814:	0009883a 	mov	r4,zero
    4818:	014ffc34 	movhi	r5,16368
    481c:	103fcf0e 	bge	r2,zero,475c <_dtoa_r+0x5dc>
    4820:	d8c01317 	ldw	r3,76(sp)
    4824:	d8c00515 	stw	r3,20(sp)
    4828:	d9400917 	ldw	r5,36(sp)
    482c:	e009883a 	mov	r4,fp
    4830:	00063c40 	call	63c4 <_Bfree>
    4834:	d9000517 	ldw	r4,20(sp)
    4838:	d9802317 	ldw	r6,140(sp)
    483c:	d9c02517 	ldw	r7,148(sp)
    4840:	b8000005 	stb	zero,0(r23)
    4844:	20800044 	addi	r2,r4,1
    4848:	30800015 	stw	r2,0(r6)
    484c:	3802aa26 	beq	r7,zero,52f8 <_dtoa_r+0x1178>
    4850:	3dc00015 	stw	r23,0(r7)
    4854:	d8800717 	ldw	r2,28(sp)
    4858:	003e7906 	br	4240 <_dtoa_r+0xc0>
    485c:	00800434 	movhi	r2,16
    4860:	10bfffc4 	addi	r2,r2,-1
    4864:	88a2703a 	and	r17,r17,r2
    4868:	883e851e 	bne	r17,zero,4280 <_dtoa_r+0x100>
    486c:	008000b4 	movhi	r2,2
    4870:	10a9e204 	addi	r2,r2,-22648
    4874:	003e8406 	br	4288 <_dtoa_r+0x108>
    4878:	10c00204 	addi	r3,r2,8
    487c:	003e8706 	br	429c <_dtoa_r+0x11c>
    4880:	01400434 	movhi	r5,16
    4884:	297fffc4 	addi	r5,r5,-1
    4888:	994a703a 	and	r5,r19,r5
    488c:	9009883a 	mov	r4,r18
    4890:	843f0044 	addi	r16,r16,-1023
    4894:	294ffc34 	orhi	r5,r5,16368
    4898:	dd800217 	ldw	r22,8(sp)
    489c:	d8001115 	stw	zero,68(sp)
    48a0:	003ea506 	br	4338 <_dtoa_r+0x1b8>
    48a4:	008000b4 	movhi	r2,2
    48a8:	10a9d904 	addi	r2,r2,-22684
    48ac:	003e6406 	br	4240 <_dtoa_r+0xc0>
    48b0:	e0001115 	stw	zero,68(fp)
    48b4:	000b883a 	mov	r5,zero
    48b8:	e009883a 	mov	r4,fp
    48bc:	000631c0 	call	631c <_Balloc>
    48c0:	01bfffc4 	movi	r6,-1
    48c4:	01c00044 	movi	r7,1
    48c8:	d8800715 	stw	r2,28(sp)
    48cc:	d9800c15 	stw	r6,48(sp)
    48d0:	e0801015 	stw	r2,64(fp)
    48d4:	d8000315 	stw	zero,12(sp)
    48d8:	d9c00b15 	stw	r7,44(sp)
    48dc:	d9800615 	stw	r6,24(sp)
    48e0:	d8002215 	stw	zero,136(sp)
    48e4:	d8800117 	ldw	r2,4(sp)
    48e8:	10008916 	blt	r2,zero,4b10 <_dtoa_r+0x990>
    48ec:	d9000517 	ldw	r4,20(sp)
    48f0:	00c00384 	movi	r3,14
    48f4:	19008616 	blt	r3,r4,4b10 <_dtoa_r+0x990>
    48f8:	200490fa 	slli	r2,r4,3
    48fc:	00c000b4 	movhi	r3,2
    4900:	d9802217 	ldw	r6,136(sp)
    4904:	18ea0104 	addi	r3,r3,-22524
    4908:	1885883a 	add	r2,r3,r2
    490c:	14000017 	ldw	r16,0(r2)
    4910:	14400117 	ldw	r17,4(r2)
    4914:	30016316 	blt	r6,zero,4ea4 <_dtoa_r+0xd24>
    4918:	800d883a 	mov	r6,r16
    491c:	880f883a 	mov	r7,r17
    4920:	9009883a 	mov	r4,r18
    4924:	980b883a 	mov	r5,r19
    4928:	000ab500 	call	ab50 <__divdf3>
    492c:	180b883a 	mov	r5,r3
    4930:	1009883a 	mov	r4,r2
    4934:	000c6a40 	call	c6a4 <__fixdfsi>
    4938:	1009883a 	mov	r4,r2
    493c:	102b883a 	mov	r21,r2
    4940:	000c7240 	call	c724 <__floatsidf>
    4944:	800d883a 	mov	r6,r16
    4948:	880f883a 	mov	r7,r17
    494c:	1009883a 	mov	r4,r2
    4950:	180b883a 	mov	r5,r3
    4954:	000b6900 	call	b690 <__muldf3>
    4958:	100d883a 	mov	r6,r2
    495c:	180f883a 	mov	r7,r3
    4960:	9009883a 	mov	r4,r18
    4964:	980b883a 	mov	r5,r19
    4968:	000bda80 	call	bda8 <__subdf3>
    496c:	d9c00717 	ldw	r7,28(sp)
    4970:	1009883a 	mov	r4,r2
    4974:	a8800c04 	addi	r2,r21,48
    4978:	38800005 	stb	r2,0(r7)
    497c:	3dc00044 	addi	r23,r7,1
    4980:	d9c00617 	ldw	r7,24(sp)
    4984:	01800044 	movi	r6,1
    4988:	180b883a 	mov	r5,r3
    498c:	2005883a 	mov	r2,r4
    4990:	39803826 	beq	r7,r6,4a74 <_dtoa_r+0x8f4>
    4994:	000d883a 	mov	r6,zero
    4998:	01d00934 	movhi	r7,16420
    499c:	000b6900 	call	b690 <__muldf3>
    49a0:	000d883a 	mov	r6,zero
    49a4:	000f883a 	mov	r7,zero
    49a8:	1009883a 	mov	r4,r2
    49ac:	180b883a 	mov	r5,r3
    49b0:	1025883a 	mov	r18,r2
    49b4:	1827883a 	mov	r19,r3
    49b8:	000b4380 	call	b438 <__eqdf2>
    49bc:	103f9a26 	beq	r2,zero,4828 <_dtoa_r+0x6a8>
    49c0:	d9c00617 	ldw	r7,24(sp)
    49c4:	d8c00717 	ldw	r3,28(sp)
    49c8:	b829883a 	mov	r20,r23
    49cc:	38bfffc4 	addi	r2,r7,-1
    49d0:	18ad883a 	add	r22,r3,r2
    49d4:	00000a06 	br	4a00 <_dtoa_r+0x880>
    49d8:	000b6900 	call	b690 <__muldf3>
    49dc:	000d883a 	mov	r6,zero
    49e0:	000f883a 	mov	r7,zero
    49e4:	1009883a 	mov	r4,r2
    49e8:	180b883a 	mov	r5,r3
    49ec:	1025883a 	mov	r18,r2
    49f0:	1827883a 	mov	r19,r3
    49f4:	b829883a 	mov	r20,r23
    49f8:	000b4380 	call	b438 <__eqdf2>
    49fc:	103f8a26 	beq	r2,zero,4828 <_dtoa_r+0x6a8>
    4a00:	800d883a 	mov	r6,r16
    4a04:	880f883a 	mov	r7,r17
    4a08:	9009883a 	mov	r4,r18
    4a0c:	980b883a 	mov	r5,r19
    4a10:	000ab500 	call	ab50 <__divdf3>
    4a14:	180b883a 	mov	r5,r3
    4a18:	1009883a 	mov	r4,r2
    4a1c:	000c6a40 	call	c6a4 <__fixdfsi>
    4a20:	1009883a 	mov	r4,r2
    4a24:	102b883a 	mov	r21,r2
    4a28:	000c7240 	call	c724 <__floatsidf>
    4a2c:	800d883a 	mov	r6,r16
    4a30:	880f883a 	mov	r7,r17
    4a34:	1009883a 	mov	r4,r2
    4a38:	180b883a 	mov	r5,r3
    4a3c:	000b6900 	call	b690 <__muldf3>
    4a40:	100d883a 	mov	r6,r2
    4a44:	180f883a 	mov	r7,r3
    4a48:	9009883a 	mov	r4,r18
    4a4c:	980b883a 	mov	r5,r19
    4a50:	000bda80 	call	bda8 <__subdf3>
    4a54:	aa000c04 	addi	r8,r21,48
    4a58:	a2000005 	stb	r8,0(r20)
    4a5c:	000d883a 	mov	r6,zero
    4a60:	01d00934 	movhi	r7,16420
    4a64:	1009883a 	mov	r4,r2
    4a68:	180b883a 	mov	r5,r3
    4a6c:	a5c00044 	addi	r23,r20,1
    4a70:	b53fd91e 	bne	r22,r20,49d8 <_dtoa_r+0x858>
    4a74:	100d883a 	mov	r6,r2
    4a78:	180f883a 	mov	r7,r3
    4a7c:	1009883a 	mov	r4,r2
    4a80:	180b883a 	mov	r5,r3
    4a84:	000a2a40 	call	a2a4 <__adddf3>
    4a88:	100d883a 	mov	r6,r2
    4a8c:	180f883a 	mov	r7,r3
    4a90:	8009883a 	mov	r4,r16
    4a94:	880b883a 	mov	r5,r17
    4a98:	1027883a 	mov	r19,r2
    4a9c:	1825883a 	mov	r18,r3
    4aa0:	000b59c0 	call	b59c <__ledf2>
    4aa4:	10000816 	blt	r2,zero,4ac8 <_dtoa_r+0x948>
    4aa8:	980d883a 	mov	r6,r19
    4aac:	900f883a 	mov	r7,r18
    4ab0:	8009883a 	mov	r4,r16
    4ab4:	880b883a 	mov	r5,r17
    4ab8:	000b4380 	call	b438 <__eqdf2>
    4abc:	103f5a1e 	bne	r2,zero,4828 <_dtoa_r+0x6a8>
    4ac0:	ad40004c 	andi	r21,r21,1
    4ac4:	a83f5826 	beq	r21,zero,4828 <_dtoa_r+0x6a8>
    4ac8:	bd3fffc3 	ldbu	r20,-1(r23)
    4acc:	b8bfffc4 	addi	r2,r23,-1
    4ad0:	1007883a 	mov	r3,r2
    4ad4:	01400e44 	movi	r5,57
    4ad8:	d9800717 	ldw	r6,28(sp)
    4adc:	00000506 	br	4af4 <_dtoa_r+0x974>
    4ae0:	18ffffc4 	addi	r3,r3,-1
    4ae4:	11824726 	beq	r2,r6,5404 <_dtoa_r+0x1284>
    4ae8:	1d000003 	ldbu	r20,0(r3)
    4aec:	102f883a 	mov	r23,r2
    4af0:	10bfffc4 	addi	r2,r2,-1
    4af4:	a1003fcc 	andi	r4,r20,255
    4af8:	2100201c 	xori	r4,r4,128
    4afc:	213fe004 	addi	r4,r4,-128
    4b00:	217ff726 	beq	r4,r5,4ae0 <_dtoa_r+0x960>
    4b04:	a2000044 	addi	r8,r20,1
    4b08:	12000005 	stb	r8,0(r2)
    4b0c:	003f4606 	br	4828 <_dtoa_r+0x6a8>
    4b10:	d9000b17 	ldw	r4,44(sp)
    4b14:	2000c826 	beq	r4,zero,4e38 <_dtoa_r+0xcb8>
    4b18:	d9800317 	ldw	r6,12(sp)
    4b1c:	00c00044 	movi	r3,1
    4b20:	1980f90e 	bge	r3,r6,4f08 <_dtoa_r+0xd88>
    4b24:	d8800617 	ldw	r2,24(sp)
    4b28:	d8c00a17 	ldw	r3,40(sp)
    4b2c:	157fffc4 	addi	r21,r2,-1
    4b30:	1d41f316 	blt	r3,r21,5300 <_dtoa_r+0x1180>
    4b34:	1d6bc83a 	sub	r21,r3,r21
    4b38:	d9c00617 	ldw	r7,24(sp)
    4b3c:	3802aa16 	blt	r7,zero,55e8 <_dtoa_r+0x1468>
    4b40:	dd000817 	ldw	r20,32(sp)
    4b44:	d8800617 	ldw	r2,24(sp)
    4b48:	d8c00817 	ldw	r3,32(sp)
    4b4c:	01400044 	movi	r5,1
    4b50:	e009883a 	mov	r4,fp
    4b54:	1887883a 	add	r3,r3,r2
    4b58:	d8c00815 	stw	r3,32(sp)
    4b5c:	b0ad883a 	add	r22,r22,r2
    4b60:	00067280 	call	6728 <__i2b>
    4b64:	1023883a 	mov	r17,r2
    4b68:	a0000826 	beq	r20,zero,4b8c <_dtoa_r+0xa0c>
    4b6c:	0580070e 	bge	zero,r22,4b8c <_dtoa_r+0xa0c>
    4b70:	a005883a 	mov	r2,r20
    4b74:	b500b916 	blt	r22,r20,4e5c <_dtoa_r+0xcdc>
    4b78:	d9000817 	ldw	r4,32(sp)
    4b7c:	a0a9c83a 	sub	r20,r20,r2
    4b80:	b0adc83a 	sub	r22,r22,r2
    4b84:	2089c83a 	sub	r4,r4,r2
    4b88:	d9000815 	stw	r4,32(sp)
    4b8c:	d9800a17 	ldw	r6,40(sp)
    4b90:	0181810e 	bge	zero,r6,5198 <_dtoa_r+0x1018>
    4b94:	d9c00b17 	ldw	r7,44(sp)
    4b98:	3800b326 	beq	r7,zero,4e68 <_dtoa_r+0xce8>
    4b9c:	a800b226 	beq	r21,zero,4e68 <_dtoa_r+0xce8>
    4ba0:	880b883a 	mov	r5,r17
    4ba4:	a80d883a 	mov	r6,r21
    4ba8:	e009883a 	mov	r4,fp
    4bac:	000695c0 	call	695c <__pow5mult>
    4bb0:	d9800917 	ldw	r6,36(sp)
    4bb4:	100b883a 	mov	r5,r2
    4bb8:	e009883a 	mov	r4,fp
    4bbc:	1023883a 	mov	r17,r2
    4bc0:	00067640 	call	6764 <__multiply>
    4bc4:	1021883a 	mov	r16,r2
    4bc8:	d8800a17 	ldw	r2,40(sp)
    4bcc:	d9400917 	ldw	r5,36(sp)
    4bd0:	e009883a 	mov	r4,fp
    4bd4:	1545c83a 	sub	r2,r2,r21
    4bd8:	d8800a15 	stw	r2,40(sp)
    4bdc:	00063c40 	call	63c4 <_Bfree>
    4be0:	d8c00a17 	ldw	r3,40(sp)
    4be4:	18009f1e 	bne	r3,zero,4e64 <_dtoa_r+0xce4>
    4be8:	05c00044 	movi	r23,1
    4bec:	e009883a 	mov	r4,fp
    4bf0:	b80b883a 	mov	r5,r23
    4bf4:	00067280 	call	6728 <__i2b>
    4bf8:	d9000d17 	ldw	r4,52(sp)
